
main.elf:     file format elf32-avr

Sections:
Idx Name          Size      VMA       LMA       File off  Algn
  0 .data         0000002c  00800100  00000df4  00000e68  2**0
                  CONTENTS, ALLOC, LOAD, DATA
  1 .text         00000df4  00000000  00000000  00000074  2**1
                  CONTENTS, ALLOC, LOAD, READONLY, CODE
  2 .stab         0000372c  00000000  00000000  00000e94  2**2
                  CONTENTS, READONLY, DEBUGGING
  3 .stabstr      00001b3d  00000000  00000000  000045c0  2**0
                  CONTENTS, READONLY, DEBUGGING
  4 .comment      00000022  00000000  00000000  000060fd  2**0
                  CONTENTS, READONLY

Disassembly of section .text:

00000000 <__vectors>:
   0:	0c 94 34 00 	jmp	0x68	; 0x68 <__ctors_end>
   4:	0c 94 49 00 	jmp	0x92	; 0x92 <__bad_interrupt>
   8:	0c 94 49 00 	jmp	0x92	; 0x92 <__bad_interrupt>
   c:	0c 94 49 00 	jmp	0x92	; 0x92 <__bad_interrupt>
  10:	0c 94 49 00 	jmp	0x92	; 0x92 <__bad_interrupt>
  14:	0c 94 49 00 	jmp	0x92	; 0x92 <__bad_interrupt>
  18:	0c 94 49 00 	jmp	0x92	; 0x92 <__bad_interrupt>
  1c:	0c 94 49 00 	jmp	0x92	; 0x92 <__bad_interrupt>
  20:	0c 94 49 00 	jmp	0x92	; 0x92 <__bad_interrupt>
  24:	0c 94 49 00 	jmp	0x92	; 0x92 <__bad_interrupt>
  28:	0c 94 49 00 	jmp	0x92	; 0x92 <__bad_interrupt>
  2c:	0c 94 49 00 	jmp	0x92	; 0x92 <__bad_interrupt>
  30:	0c 94 49 00 	jmp	0x92	; 0x92 <__bad_interrupt>
  34:	0c 94 49 00 	jmp	0x92	; 0x92 <__bad_interrupt>
  38:	0c 94 49 00 	jmp	0x92	; 0x92 <__bad_interrupt>
  3c:	0c 94 49 00 	jmp	0x92	; 0x92 <__bad_interrupt>
  40:	0c 94 49 00 	jmp	0x92	; 0x92 <__bad_interrupt>
  44:	0c 94 49 00 	jmp	0x92	; 0x92 <__bad_interrupt>
  48:	0c 94 49 00 	jmp	0x92	; 0x92 <__bad_interrupt>
  4c:	0c 94 49 00 	jmp	0x92	; 0x92 <__bad_interrupt>
  50:	0c 94 49 00 	jmp	0x92	; 0x92 <__bad_interrupt>
  54:	0c 94 49 00 	jmp	0x92	; 0x92 <__bad_interrupt>
  58:	0c 94 49 00 	jmp	0x92	; 0x92 <__bad_interrupt>
  5c:	0c 94 49 00 	jmp	0x92	; 0x92 <__bad_interrupt>
  60:	0c 94 49 00 	jmp	0x92	; 0x92 <__bad_interrupt>
  64:	0c 94 49 00 	jmp	0x92	; 0x92 <__bad_interrupt>

00000068 <__ctors_end>:
  68:	11 24       	eor	r1, r1
  6a:	1f be       	out	0x3f, r1	; 63
  6c:	cf ef       	ldi	r28, 0xFF	; 255
  6e:	d8 e0       	ldi	r29, 0x08	; 8
  70:	de bf       	out	0x3e, r29	; 62
  72:	cd bf       	out	0x3d, r28	; 61

00000074 <__do_copy_data>:
  74:	11 e0       	ldi	r17, 0x01	; 1
  76:	a0 e0       	ldi	r26, 0x00	; 0
  78:	b1 e0       	ldi	r27, 0x01	; 1
  7a:	e4 ef       	ldi	r30, 0xF4	; 244
  7c:	fd e0       	ldi	r31, 0x0D	; 13
  7e:	02 c0       	rjmp	.+4      	; 0x84 <__do_copy_data+0x10>
  80:	05 90       	lpm	r0, Z+
  82:	0d 92       	st	X+, r0
  84:	ac 32       	cpi	r26, 0x2C	; 44
  86:	b1 07       	cpc	r27, r17
  88:	d9 f7       	brne	.-10     	; 0x80 <__do_copy_data+0xc>
  8a:	0e 94 ba 02 	call	0x574	; 0x574 <main>
  8e:	0c 94 f8 06 	jmp	0xdf0	; 0xdf0 <_exit>

00000092 <__bad_interrupt>:
  92:	0c 94 00 00 	jmp	0	; 0x0 <__vectors>

00000096 <initADC>:
  96:	ec e7       	ldi	r30, 0x7C	; 124
  98:	f0 e0       	ldi	r31, 0x00	; 0
  9a:	80 81       	ld	r24, Z
  9c:	80 64       	ori	r24, 0x40	; 64
  9e:	80 83       	st	Z, r24
  a0:	ea e7       	ldi	r30, 0x7A	; 122
  a2:	f0 e0       	ldi	r31, 0x00	; 0
  a4:	80 81       	ld	r24, Z
  a6:	85 60       	ori	r24, 0x05	; 5
  a8:	80 83       	st	Z, r24
  aa:	80 81       	ld	r24, Z
  ac:	80 68       	ori	r24, 0x80	; 128
  ae:	80 83       	st	Z, r24
  b0:	08 95       	ret

000000b2 <readADC>:
  b2:	90 91 7c 00 	lds	r25, 0x007C
  b6:	90 7f       	andi	r25, 0xF0	; 240
  b8:	98 2b       	or	r25, r24
  ba:	90 93 7c 00 	sts	0x007C, r25
  be:	80 91 7a 00 	lds	r24, 0x007A
  c2:	80 64       	ori	r24, 0x40	; 64
  c4:	80 93 7a 00 	sts	0x007A, r24
  c8:	80 91 7a 00 	lds	r24, 0x007A
  cc:	86 fd       	sbrc	r24, 6
  ce:	fc cf       	rjmp	.-8      	; 0xc8 <readADC+0x16>
  d0:	20 91 78 00 	lds	r18, 0x0078
  d4:	30 91 79 00 	lds	r19, 0x0079
  d8:	c9 01       	movw	r24, r18
  da:	08 95       	ret

000000dc <initValues>:
  dc:	20 e0       	ldi	r18, 0x00	; 0
  de:	05 c0       	rjmp	.+10     	; 0xea <initValues+0xe>
  e0:	fc 01       	movw	r30, r24
  e2:	41 93       	st	Z+, r20
  e4:	51 93       	st	Z+, r21
  e6:	cf 01       	movw	r24, r30
  e8:	2f 5f       	subi	r18, 0xFF	; 255
  ea:	26 13       	cpse	r18, r22
  ec:	f9 cf       	rjmp	.-14     	; 0xe0 <initValues+0x4>
  ee:	08 95       	ret

000000f0 <storeNewADC>:
  f0:	cf 93       	push	r28
  f2:	df 93       	push	r29
  f4:	70 e0       	ldi	r23, 0x00	; 0
  f6:	61 50       	subi	r22, 0x01	; 1
  f8:	71 09       	sbc	r23, r1
  fa:	eb 01       	movw	r28, r22
  fc:	cc 0f       	add	r28, r28
  fe:	dd 1f       	adc	r29, r29
 100:	c8 0f       	add	r28, r24
 102:	d9 1f       	adc	r29, r25
 104:	90 e0       	ldi	r25, 0x00	; 0
 106:	07 c0       	rjmp	.+14     	; 0x116 <storeNewADC+0x26>
 108:	fe 01       	movw	r30, r28
 10a:	32 91       	ld	r19, -Z
 10c:	22 91       	ld	r18, -Z
 10e:	39 83       	std	Y+1, r19	; 0x01
 110:	28 83       	st	Y, r18
 112:	9f 5f       	subi	r25, 0xFF	; 255
 114:	ef 01       	movw	r28, r30
 116:	29 2f       	mov	r18, r25
 118:	30 e0       	ldi	r19, 0x00	; 0
 11a:	26 17       	cp	r18, r22
 11c:	37 07       	cpc	r19, r23
 11e:	a4 f3       	brlt	.-24     	; 0x108 <storeNewADC+0x18>
 120:	84 2f       	mov	r24, r20
 122:	0e 94 59 00 	call	0xb2	; 0xb2 <readADC>
 126:	99 83       	std	Y+1, r25	; 0x01
 128:	88 83       	st	Y, r24
 12a:	df 91       	pop	r29
 12c:	cf 91       	pop	r28
 12e:	08 95       	ret

00000130 <getAverage>:
 130:	fc 01       	movw	r30, r24
 132:	36 2f       	mov	r19, r22
 134:	60 e0       	ldi	r22, 0x00	; 0
 136:	70 e0       	ldi	r23, 0x00	; 0
 138:	cb 01       	movw	r24, r22
 13a:	20 e0       	ldi	r18, 0x00	; 0
 13c:	07 c0       	rjmp	.+14     	; 0x14c <getAverage+0x1c>
 13e:	41 91       	ld	r20, Z+
 140:	51 91       	ld	r21, Z+
 142:	64 0f       	add	r22, r20
 144:	75 1f       	adc	r23, r21
 146:	81 1d       	adc	r24, r1
 148:	91 1d       	adc	r25, r1
 14a:	2f 5f       	subi	r18, 0xFF	; 255
 14c:	23 13       	cpse	r18, r19
 14e:	f7 cf       	rjmp	.-18     	; 0x13e <getAverage+0xe>
 150:	30 e0       	ldi	r19, 0x00	; 0
 152:	40 e0       	ldi	r20, 0x00	; 0
 154:	50 e0       	ldi	r21, 0x00	; 0
 156:	0e 94 05 04 	call	0x80a	; 0x80a <__udivmodsi4>
 15a:	c9 01       	movw	r24, r18
 15c:	08 95       	ret

0000015e <blinkTwice>:
 15e:	22 9a       	sbi	0x04, 2	; 4
 160:	62 e0       	ldi	r22, 0x02	; 2
 162:	70 e0       	ldi	r23, 0x00	; 0
 164:	82 e4       	ldi	r24, 0x42	; 66
 166:	0e 94 dd 00 	call	0x1ba	; 0x1ba <toggle>
 16a:	8f e4       	ldi	r24, 0x4F	; 79
 16c:	93 ec       	ldi	r25, 0xC3	; 195
 16e:	01 97       	sbiw	r24, 0x01	; 1
 170:	f1 f7       	brne	.-4      	; 0x16e <blinkTwice+0x10>
 172:	00 c0       	rjmp	.+0      	; 0x174 <blinkTwice+0x16>
 174:	00 00       	nop
 176:	62 e0       	ldi	r22, 0x02	; 2
 178:	70 e0       	ldi	r23, 0x00	; 0
 17a:	82 e4       	ldi	r24, 0x42	; 66
 17c:	0e 94 dd 00 	call	0x1ba	; 0x1ba <toggle>
 180:	8f e4       	ldi	r24, 0x4F	; 79
 182:	93 ec       	ldi	r25, 0xC3	; 195
 184:	01 97       	sbiw	r24, 0x01	; 1
 186:	f1 f7       	brne	.-4      	; 0x184 <blinkTwice+0x26>
 188:	00 c0       	rjmp	.+0      	; 0x18a <blinkTwice+0x2c>
 18a:	00 00       	nop
 18c:	62 e0       	ldi	r22, 0x02	; 2
 18e:	70 e0       	ldi	r23, 0x00	; 0
 190:	82 e4       	ldi	r24, 0x42	; 66
 192:	0e 94 dd 00 	call	0x1ba	; 0x1ba <toggle>
 196:	8f e4       	ldi	r24, 0x4F	; 79
 198:	93 ec       	ldi	r25, 0xC3	; 195
 19a:	01 97       	sbiw	r24, 0x01	; 1
 19c:	f1 f7       	brne	.-4      	; 0x19a <blinkTwice+0x3c>
 19e:	00 c0       	rjmp	.+0      	; 0x1a0 <blinkTwice+0x42>
 1a0:	00 00       	nop
 1a2:	62 e0       	ldi	r22, 0x02	; 2
 1a4:	70 e0       	ldi	r23, 0x00	; 0
 1a6:	82 e4       	ldi	r24, 0x42	; 66
 1a8:	0e 94 dd 00 	call	0x1ba	; 0x1ba <toggle>
 1ac:	8f e4       	ldi	r24, 0x4F	; 79
 1ae:	93 ec       	ldi	r25, 0xC3	; 195
 1b0:	01 97       	sbiw	r24, 0x01	; 1
 1b2:	f1 f7       	brne	.-4      	; 0x1b0 <blinkTwice+0x52>
 1b4:	00 c0       	rjmp	.+0      	; 0x1b6 <blinkTwice+0x58>
 1b6:	00 00       	nop
 1b8:	08 95       	ret

000001ba <toggle>:
 1ba:	81 34       	cpi	r24, 0x41	; 65
 1bc:	31 f1       	breq	.+76     	; 0x20a <toggle+0x50>
 1be:	82 34       	cpi	r24, 0x42	; 66
 1c0:	59 f4       	brne	.+22     	; 0x1d8 <toggle+0x1e>
 1c2:	25 b1       	in	r18, 0x05	; 5
 1c4:	81 e0       	ldi	r24, 0x01	; 1
 1c6:	90 e0       	ldi	r25, 0x00	; 0
 1c8:	06 2e       	mov	r0, r22
 1ca:	01 c0       	rjmp	.+2      	; 0x1ce <toggle+0x14>
 1cc:	88 0f       	add	r24, r24
 1ce:	0a 94       	dec	r0
 1d0:	ea f7       	brpl	.-6      	; 0x1cc <toggle+0x12>
 1d2:	28 27       	eor	r18, r24
 1d4:	25 b9       	out	0x05, r18	; 5
 1d6:	08 95       	ret
 1d8:	83 34       	cpi	r24, 0x43	; 67
 1da:	59 f4       	brne	.+22     	; 0x1f2 <toggle+0x38>
 1dc:	28 b1       	in	r18, 0x08	; 8
 1de:	81 e0       	ldi	r24, 0x01	; 1
 1e0:	90 e0       	ldi	r25, 0x00	; 0
 1e2:	06 2e       	mov	r0, r22
 1e4:	01 c0       	rjmp	.+2      	; 0x1e8 <toggle+0x2e>
 1e6:	88 0f       	add	r24, r24
 1e8:	0a 94       	dec	r0
 1ea:	ea f7       	brpl	.-6      	; 0x1e6 <toggle+0x2c>
 1ec:	28 27       	eor	r18, r24
 1ee:	28 b9       	out	0x08, r18	; 8
 1f0:	08 95       	ret
 1f2:	84 34       	cpi	r24, 0x44	; 68
 1f4:	51 f4       	brne	.+20     	; 0x20a <toggle+0x50>
 1f6:	2b b1       	in	r18, 0x0b	; 11
 1f8:	81 e0       	ldi	r24, 0x01	; 1
 1fa:	90 e0       	ldi	r25, 0x00	; 0
 1fc:	06 2e       	mov	r0, r22
 1fe:	01 c0       	rjmp	.+2      	; 0x202 <toggle+0x48>
 200:	88 0f       	add	r24, r24
 202:	0a 94       	dec	r0
 204:	ea f7       	brpl	.-6      	; 0x200 <toggle+0x46>
 206:	28 27       	eor	r18, r24
 208:	2b b9       	out	0x0b, r18	; 11
 20a:	08 95       	ret

0000020c <pin_hi>:
 20c:	81 34       	cpi	r24, 0x41	; 65
 20e:	31 f1       	breq	.+76     	; 0x25c <pin_hi+0x50>
 210:	82 34       	cpi	r24, 0x42	; 66
 212:	59 f4       	brne	.+22     	; 0x22a <pin_hi+0x1e>
 214:	25 b1       	in	r18, 0x05	; 5
 216:	81 e0       	ldi	r24, 0x01	; 1
 218:	90 e0       	ldi	r25, 0x00	; 0
 21a:	06 2e       	mov	r0, r22
 21c:	01 c0       	rjmp	.+2      	; 0x220 <pin_hi+0x14>
 21e:	88 0f       	add	r24, r24
 220:	0a 94       	dec	r0
 222:	ea f7       	brpl	.-6      	; 0x21e <pin_hi+0x12>
 224:	28 2b       	or	r18, r24
 226:	25 b9       	out	0x05, r18	; 5
 228:	08 95       	ret
 22a:	83 34       	cpi	r24, 0x43	; 67
 22c:	59 f4       	brne	.+22     	; 0x244 <pin_hi+0x38>
 22e:	28 b1       	in	r18, 0x08	; 8
 230:	81 e0       	ldi	r24, 0x01	; 1
 232:	90 e0       	ldi	r25, 0x00	; 0
 234:	06 2e       	mov	r0, r22
 236:	01 c0       	rjmp	.+2      	; 0x23a <pin_hi+0x2e>
 238:	88 0f       	add	r24, r24
 23a:	0a 94       	dec	r0
 23c:	ea f7       	brpl	.-6      	; 0x238 <pin_hi+0x2c>
 23e:	28 2b       	or	r18, r24
 240:	28 b9       	out	0x08, r18	; 8
 242:	08 95       	ret
 244:	84 34       	cpi	r24, 0x44	; 68
 246:	51 f4       	brne	.+20     	; 0x25c <pin_hi+0x50>
 248:	2b b1       	in	r18, 0x0b	; 11
 24a:	81 e0       	ldi	r24, 0x01	; 1
 24c:	90 e0       	ldi	r25, 0x00	; 0
 24e:	06 2e       	mov	r0, r22
 250:	01 c0       	rjmp	.+2      	; 0x254 <pin_hi+0x48>
 252:	88 0f       	add	r24, r24
 254:	0a 94       	dec	r0
 256:	ea f7       	brpl	.-6      	; 0x252 <pin_hi+0x46>
 258:	28 2b       	or	r18, r24
 25a:	2b b9       	out	0x0b, r18	; 11
 25c:	08 95       	ret

0000025e <pin_lo>:
 25e:	81 34       	cpi	r24, 0x41	; 65
 260:	49 f1       	breq	.+82     	; 0x2b4 <pin_lo+0x56>
 262:	82 34       	cpi	r24, 0x42	; 66
 264:	61 f4       	brne	.+24     	; 0x27e <pin_lo+0x20>
 266:	25 b1       	in	r18, 0x05	; 5
 268:	81 e0       	ldi	r24, 0x01	; 1
 26a:	90 e0       	ldi	r25, 0x00	; 0
 26c:	06 2e       	mov	r0, r22
 26e:	01 c0       	rjmp	.+2      	; 0x272 <pin_lo+0x14>
 270:	88 0f       	add	r24, r24
 272:	0a 94       	dec	r0
 274:	ea f7       	brpl	.-6      	; 0x270 <pin_lo+0x12>
 276:	80 95       	com	r24
 278:	82 23       	and	r24, r18
 27a:	85 b9       	out	0x05, r24	; 5
 27c:	08 95       	ret
 27e:	83 34       	cpi	r24, 0x43	; 67
 280:	61 f4       	brne	.+24     	; 0x29a <pin_lo+0x3c>
 282:	28 b1       	in	r18, 0x08	; 8
 284:	81 e0       	ldi	r24, 0x01	; 1
 286:	90 e0       	ldi	r25, 0x00	; 0
 288:	06 2e       	mov	r0, r22
 28a:	01 c0       	rjmp	.+2      	; 0x28e <pin_lo+0x30>
 28c:	88 0f       	add	r24, r24
 28e:	0a 94       	dec	r0
 290:	ea f7       	brpl	.-6      	; 0x28c <pin_lo+0x2e>
 292:	80 95       	com	r24
 294:	82 23       	and	r24, r18
 296:	88 b9       	out	0x08, r24	; 8
 298:	08 95       	ret
 29a:	84 34       	cpi	r24, 0x44	; 68
 29c:	59 f4       	brne	.+22     	; 0x2b4 <pin_lo+0x56>
 29e:	2b b1       	in	r18, 0x0b	; 11
 2a0:	81 e0       	ldi	r24, 0x01	; 1
 2a2:	90 e0       	ldi	r25, 0x00	; 0
 2a4:	06 2e       	mov	r0, r22
 2a6:	01 c0       	rjmp	.+2      	; 0x2aa <pin_lo+0x4c>
 2a8:	88 0f       	add	r24, r24
 2aa:	0a 94       	dec	r0
 2ac:	ea f7       	brpl	.-6      	; 0x2a8 <pin_lo+0x4a>
 2ae:	80 95       	com	r24
 2b0:	82 23       	and	r24, r18
 2b2:	8b b9       	out	0x0b, r24	; 11
 2b4:	08 95       	ret

000002b6 <set_as_input>:
 2b6:	81 34       	cpi	r24, 0x41	; 65
 2b8:	49 f1       	breq	.+82     	; 0x30c <set_as_input+0x56>
 2ba:	82 34       	cpi	r24, 0x42	; 66
 2bc:	61 f4       	brne	.+24     	; 0x2d6 <set_as_input+0x20>
 2be:	24 b1       	in	r18, 0x04	; 4
 2c0:	81 e0       	ldi	r24, 0x01	; 1
 2c2:	90 e0       	ldi	r25, 0x00	; 0
 2c4:	06 2e       	mov	r0, r22
 2c6:	01 c0       	rjmp	.+2      	; 0x2ca <set_as_input+0x14>
 2c8:	88 0f       	add	r24, r24
 2ca:	0a 94       	dec	r0
 2cc:	ea f7       	brpl	.-6      	; 0x2c8 <set_as_input+0x12>
 2ce:	80 95       	com	r24
 2d0:	82 23       	and	r24, r18
 2d2:	84 b9       	out	0x04, r24	; 4
 2d4:	08 95       	ret
 2d6:	83 34       	cpi	r24, 0x43	; 67
 2d8:	61 f4       	brne	.+24     	; 0x2f2 <set_as_input+0x3c>
 2da:	27 b1       	in	r18, 0x07	; 7
 2dc:	81 e0       	ldi	r24, 0x01	; 1
 2de:	90 e0       	ldi	r25, 0x00	; 0
 2e0:	06 2e       	mov	r0, r22
 2e2:	01 c0       	rjmp	.+2      	; 0x2e6 <set_as_input+0x30>
 2e4:	88 0f       	add	r24, r24
 2e6:	0a 94       	dec	r0
 2e8:	ea f7       	brpl	.-6      	; 0x2e4 <set_as_input+0x2e>
 2ea:	80 95       	com	r24
 2ec:	82 23       	and	r24, r18
 2ee:	87 b9       	out	0x07, r24	; 7
 2f0:	08 95       	ret
 2f2:	84 34       	cpi	r24, 0x44	; 68
 2f4:	59 f4       	brne	.+22     	; 0x30c <set_as_input+0x56>
 2f6:	2a b1       	in	r18, 0x0a	; 10
 2f8:	81 e0       	ldi	r24, 0x01	; 1
 2fa:	90 e0       	ldi	r25, 0x00	; 0
 2fc:	06 2e       	mov	r0, r22
 2fe:	01 c0       	rjmp	.+2      	; 0x302 <set_as_input+0x4c>
 300:	88 0f       	add	r24, r24
 302:	0a 94       	dec	r0
 304:	ea f7       	brpl	.-6      	; 0x300 <set_as_input+0x4a>
 306:	80 95       	com	r24
 308:	82 23       	and	r24, r18
 30a:	8a b9       	out	0x0a, r24	; 10
 30c:	08 95       	ret

0000030e <set_as_output>:
 30e:	81 34       	cpi	r24, 0x41	; 65
 310:	31 f1       	breq	.+76     	; 0x35e <set_as_output+0x50>
 312:	82 34       	cpi	r24, 0x42	; 66
 314:	59 f4       	brne	.+22     	; 0x32c <set_as_output+0x1e>
 316:	24 b1       	in	r18, 0x04	; 4
 318:	81 e0       	ldi	r24, 0x01	; 1
 31a:	90 e0       	ldi	r25, 0x00	; 0
 31c:	06 2e       	mov	r0, r22
 31e:	01 c0       	rjmp	.+2      	; 0x322 <set_as_output+0x14>
 320:	88 0f       	add	r24, r24
 322:	0a 94       	dec	r0
 324:	ea f7       	brpl	.-6      	; 0x320 <set_as_output+0x12>
 326:	28 2b       	or	r18, r24
 328:	24 b9       	out	0x04, r18	; 4
 32a:	08 95       	ret
 32c:	83 34       	cpi	r24, 0x43	; 67
 32e:	59 f4       	brne	.+22     	; 0x346 <set_as_output+0x38>
 330:	27 b1       	in	r18, 0x07	; 7
 332:	81 e0       	ldi	r24, 0x01	; 1
 334:	90 e0       	ldi	r25, 0x00	; 0
 336:	06 2e       	mov	r0, r22
 338:	01 c0       	rjmp	.+2      	; 0x33c <set_as_output+0x2e>
 33a:	88 0f       	add	r24, r24
 33c:	0a 94       	dec	r0
 33e:	ea f7       	brpl	.-6      	; 0x33a <set_as_output+0x2c>
 340:	28 2b       	or	r18, r24
 342:	27 b9       	out	0x07, r18	; 7
 344:	08 95       	ret
 346:	84 34       	cpi	r24, 0x44	; 68
 348:	51 f4       	brne	.+20     	; 0x35e <set_as_output+0x50>
 34a:	2a b1       	in	r18, 0x0a	; 10
 34c:	81 e0       	ldi	r24, 0x01	; 1
 34e:	90 e0       	ldi	r25, 0x00	; 0
 350:	06 2e       	mov	r0, r22
 352:	01 c0       	rjmp	.+2      	; 0x356 <set_as_output+0x48>
 354:	88 0f       	add	r24, r24
 356:	0a 94       	dec	r0
 358:	ea f7       	brpl	.-6      	; 0x354 <set_as_output+0x46>
 35a:	28 2b       	or	r18, r24
 35c:	2a b9       	out	0x0a, r18	; 10
 35e:	08 95       	ret

00000360 <initUSART>:
 360:	10 92 c5 00 	sts	0x00C5, r1
 364:	8c e0       	ldi	r24, 0x0C	; 12
 366:	80 93 c4 00 	sts	0x00C4, r24
 36a:	e0 ec       	ldi	r30, 0xC0	; 192
 36c:	f0 e0       	ldi	r31, 0x00	; 0
 36e:	80 81       	ld	r24, Z
 370:	82 60       	ori	r24, 0x02	; 2
 372:	80 83       	st	Z, r24
 374:	88 e1       	ldi	r24, 0x18	; 24
 376:	80 93 c1 00 	sts	0x00C1, r24
 37a:	86 e0       	ldi	r24, 0x06	; 6
 37c:	80 93 c2 00 	sts	0x00C2, r24
 380:	08 95       	ret

00000382 <transmitByte>:
 382:	90 91 c0 00 	lds	r25, 0x00C0
 386:	95 ff       	sbrs	r25, 5
 388:	fc cf       	rjmp	.-8      	; 0x382 <transmitByte>
 38a:	80 93 c6 00 	sts	0x00C6, r24
 38e:	08 95       	ret

00000390 <receiveByte>:
 390:	80 91 c0 00 	lds	r24, 0x00C0
 394:	87 ff       	sbrs	r24, 7
 396:	fc cf       	rjmp	.-8      	; 0x390 <receiveByte>
 398:	80 91 c6 00 	lds	r24, 0x00C6
 39c:	08 95       	ret

0000039e <printString>:
 39e:	1f 93       	push	r17
 3a0:	cf 93       	push	r28
 3a2:	df 93       	push	r29
 3a4:	ec 01       	movw	r28, r24
 3a6:	10 e0       	ldi	r17, 0x00	; 0
 3a8:	03 c0       	rjmp	.+6      	; 0x3b0 <printString+0x12>
 3aa:	0e 94 c1 01 	call	0x382	; 0x382 <transmitByte>
 3ae:	1f 5f       	subi	r17, 0xFF	; 255
 3b0:	fe 01       	movw	r30, r28
 3b2:	e1 0f       	add	r30, r17
 3b4:	f1 1d       	adc	r31, r1
 3b6:	80 81       	ld	r24, Z
 3b8:	81 11       	cpse	r24, r1
 3ba:	f7 cf       	rjmp	.-18     	; 0x3aa <printString+0xc>
 3bc:	df 91       	pop	r29
 3be:	cf 91       	pop	r28
 3c0:	1f 91       	pop	r17
 3c2:	08 95       	ret

000003c4 <readString>:
 3c4:	cf 92       	push	r12
 3c6:	df 92       	push	r13
 3c8:	ef 92       	push	r14
 3ca:	ff 92       	push	r15
 3cc:	0f 93       	push	r16
 3ce:	1f 93       	push	r17
 3d0:	cf 93       	push	r28
 3d2:	df 93       	push	r29
 3d4:	8c 01       	movw	r16, r24
 3d6:	d1 2c       	mov	r13, r1
 3d8:	c6 2f       	mov	r28, r22
 3da:	d0 e0       	ldi	r29, 0x00	; 0
 3dc:	21 97       	sbiw	r28, 0x01	; 1
 3de:	12 c0       	rjmp	.+36     	; 0x404 <readString+0x40>
 3e0:	0e 94 c8 01 	call	0x390	; 0x390 <receiveByte>
 3e4:	c8 2e       	mov	r12, r24
 3e6:	0e 94 c1 01 	call	0x382	; 0x382 <transmitByte>
 3ea:	8d e0       	ldi	r24, 0x0D	; 13
 3ec:	c8 12       	cpse	r12, r24
 3ee:	05 c0       	rjmp	.+10     	; 0x3fa <readString+0x36>
 3f0:	f8 01       	movw	r30, r16
 3f2:	ed 0d       	add	r30, r13
 3f4:	f1 1d       	adc	r31, r1
 3f6:	10 82       	st	Z, r1
 3f8:	0b c0       	rjmp	.+22     	; 0x410 <readString+0x4c>
 3fa:	f8 01       	movw	r30, r16
 3fc:	ee 0d       	add	r30, r14
 3fe:	ff 1d       	adc	r31, r15
 400:	c0 82       	st	Z, r12
 402:	d3 94       	inc	r13
 404:	ed 2c       	mov	r14, r13
 406:	f1 2c       	mov	r15, r1
 408:	ec 16       	cp	r14, r28
 40a:	fd 06       	cpc	r15, r29
 40c:	4c f3       	brlt	.-46     	; 0x3e0 <readString+0x1c>
 40e:	f0 cf       	rjmp	.-32     	; 0x3f0 <readString+0x2c>
 410:	df 91       	pop	r29
 412:	cf 91       	pop	r28
 414:	1f 91       	pop	r17
 416:	0f 91       	pop	r16
 418:	ff 90       	pop	r15
 41a:	ef 90       	pop	r14
 41c:	df 90       	pop	r13
 41e:	cf 90       	pop	r12
 420:	08 95       	ret

00000422 <printByte>:
 422:	cf 93       	push	r28
 424:	c8 2f       	mov	r28, r24
 426:	64 e6       	ldi	r22, 0x64	; 100
 428:	0e 94 e5 03 	call	0x7ca	; 0x7ca <__udivmodqi4>
 42c:	80 5d       	subi	r24, 0xD0	; 208
 42e:	0e 94 c1 01 	call	0x382	; 0x382 <transmitByte>
 432:	2a e0       	ldi	r18, 0x0A	; 10
 434:	8c 2f       	mov	r24, r28
 436:	62 2f       	mov	r22, r18
 438:	0e 94 e5 03 	call	0x7ca	; 0x7ca <__udivmodqi4>
 43c:	c9 2f       	mov	r28, r25
 43e:	0e 94 e5 03 	call	0x7ca	; 0x7ca <__udivmodqi4>
 442:	89 2f       	mov	r24, r25
 444:	80 5d       	subi	r24, 0xD0	; 208
 446:	0e 94 c1 01 	call	0x382	; 0x382 <transmitByte>
 44a:	8c 2f       	mov	r24, r28
 44c:	80 5d       	subi	r24, 0xD0	; 208
 44e:	cf 91       	pop	r28
 450:	0c 94 c1 01 	jmp	0x382	; 0x382 <transmitByte>

00000454 <printWord>:
 454:	0f 93       	push	r16
 456:	1f 93       	push	r17
 458:	cf 93       	push	r28
 45a:	df 93       	push	r29
 45c:	ec 01       	movw	r28, r24
 45e:	60 e1       	ldi	r22, 0x10	; 16
 460:	77 e2       	ldi	r23, 0x27	; 39
 462:	0e 94 f1 03 	call	0x7e2	; 0x7e2 <__udivmodhi4>
 466:	86 2f       	mov	r24, r22
 468:	80 5d       	subi	r24, 0xD0	; 208
 46a:	0e 94 c1 01 	call	0x382	; 0x382 <transmitByte>
 46e:	ce 01       	movw	r24, r28
 470:	68 ee       	ldi	r22, 0xE8	; 232
 472:	73 e0       	ldi	r23, 0x03	; 3
 474:	0e 94 f1 03 	call	0x7e2	; 0x7e2 <__udivmodhi4>
 478:	cb 01       	movw	r24, r22
 47a:	0a e0       	ldi	r16, 0x0A	; 10
 47c:	10 e0       	ldi	r17, 0x00	; 0
 47e:	b8 01       	movw	r22, r16
 480:	0e 94 f1 03 	call	0x7e2	; 0x7e2 <__udivmodhi4>
 484:	80 5d       	subi	r24, 0xD0	; 208
 486:	0e 94 c1 01 	call	0x382	; 0x382 <transmitByte>
 48a:	ce 01       	movw	r24, r28
 48c:	64 e6       	ldi	r22, 0x64	; 100
 48e:	70 e0       	ldi	r23, 0x00	; 0
 490:	0e 94 f1 03 	call	0x7e2	; 0x7e2 <__udivmodhi4>
 494:	cb 01       	movw	r24, r22
 496:	b8 01       	movw	r22, r16
 498:	0e 94 f1 03 	call	0x7e2	; 0x7e2 <__udivmodhi4>
 49c:	80 5d       	subi	r24, 0xD0	; 208
 49e:	0e 94 c1 01 	call	0x382	; 0x382 <transmitByte>
 4a2:	ce 01       	movw	r24, r28
 4a4:	b8 01       	movw	r22, r16
 4a6:	0e 94 f1 03 	call	0x7e2	; 0x7e2 <__udivmodhi4>
 4aa:	c8 2f       	mov	r28, r24
 4ac:	cb 01       	movw	r24, r22
 4ae:	b8 01       	movw	r22, r16
 4b0:	0e 94 f1 03 	call	0x7e2	; 0x7e2 <__udivmodhi4>
 4b4:	80 5d       	subi	r24, 0xD0	; 208
 4b6:	0e 94 c1 01 	call	0x382	; 0x382 <transmitByte>
 4ba:	8c 2f       	mov	r24, r28
 4bc:	80 5d       	subi	r24, 0xD0	; 208
 4be:	df 91       	pop	r29
 4c0:	cf 91       	pop	r28
 4c2:	1f 91       	pop	r17
 4c4:	0f 91       	pop	r16
 4c6:	0c 94 c1 01 	jmp	0x382	; 0x382 <transmitByte>

000004ca <printBinaryByte>:
 4ca:	1f 93       	push	r17
 4cc:	cf 93       	push	r28
 4ce:	df 93       	push	r29
 4d0:	1f 92       	push	r1
 4d2:	cd b7       	in	r28, 0x3d	; 61
 4d4:	de b7       	in	r29, 0x3e	; 62
 4d6:	89 83       	std	Y+1, r24	; 0x01
 4d8:	17 e0       	ldi	r17, 0x07	; 7
 4da:	89 81       	ldd	r24, Y+1	; 0x01
 4dc:	90 e0       	ldi	r25, 0x00	; 0
 4de:	01 2e       	mov	r0, r17
 4e0:	02 c0       	rjmp	.+4      	; 0x4e6 <printBinaryByte+0x1c>
 4e2:	95 95       	asr	r25
 4e4:	87 95       	ror	r24
 4e6:	0a 94       	dec	r0
 4e8:	e2 f7       	brpl	.-8      	; 0x4e2 <printBinaryByte+0x18>
 4ea:	80 ff       	sbrs	r24, 0
 4ec:	02 c0       	rjmp	.+4      	; 0x4f2 <printBinaryByte+0x28>
 4ee:	81 e3       	ldi	r24, 0x31	; 49
 4f0:	01 c0       	rjmp	.+2      	; 0x4f4 <printBinaryByte+0x2a>
 4f2:	80 e3       	ldi	r24, 0x30	; 48
 4f4:	0e 94 c1 01 	call	0x382	; 0x382 <transmitByte>
 4f8:	11 50       	subi	r17, 0x01	; 1
 4fa:	78 f7       	brcc	.-34     	; 0x4da <printBinaryByte+0x10>
 4fc:	0f 90       	pop	r0
 4fe:	df 91       	pop	r29
 500:	cf 91       	pop	r28
 502:	1f 91       	pop	r17
 504:	08 95       	ret

00000506 <nibbleToHexCharacter>:
 506:	8a 30       	cpi	r24, 0x0A	; 10
 508:	10 f4       	brcc	.+4      	; 0x50e <nibbleToHexCharacter+0x8>
 50a:	80 5d       	subi	r24, 0xD0	; 208
 50c:	08 95       	ret
 50e:	89 5c       	subi	r24, 0xC9	; 201
 510:	08 95       	ret

00000512 <printHexByte>:
 512:	cf 93       	push	r28
 514:	c8 2f       	mov	r28, r24
 516:	82 95       	swap	r24
 518:	8f 70       	andi	r24, 0x0F	; 15
 51a:	0e 94 83 02 	call	0x506	; 0x506 <nibbleToHexCharacter>
 51e:	0e 94 c1 01 	call	0x382	; 0x382 <transmitByte>
 522:	8c 2f       	mov	r24, r28
 524:	8f 70       	andi	r24, 0x0F	; 15
 526:	0e 94 83 02 	call	0x506	; 0x506 <nibbleToHexCharacter>
 52a:	cf 91       	pop	r28
 52c:	0c 94 c1 01 	jmp	0x382	; 0x382 <transmitByte>

00000530 <getNumber>:
 530:	0f 93       	push	r16
 532:	1f 93       	push	r17
 534:	cf 93       	push	r28
 536:	df 93       	push	r29
 538:	d0 e3       	ldi	r29, 0x30	; 48
 53a:	c0 e3       	ldi	r28, 0x30	; 48
 53c:	00 e3       	ldi	r16, 0x30	; 48
 53e:	03 c0       	rjmp	.+6      	; 0x546 <getNumber+0x16>
 540:	d1 2f       	mov	r29, r17
 542:	c8 2f       	mov	r28, r24
 544:	09 2f       	mov	r16, r25
 546:	0e 94 c8 01 	call	0x390	; 0x390 <receiveByte>
 54a:	18 2f       	mov	r17, r24
 54c:	0e 94 c1 01 	call	0x382	; 0x382 <transmitByte>
 550:	9c 2f       	mov	r25, r28
 552:	8d 2f       	mov	r24, r29
 554:	1d 30       	cpi	r17, 0x0D	; 13
 556:	a1 f7       	brne	.-24     	; 0x540 <getNumber+0x10>
 558:	80 5d       	subi	r24, 0xD0	; 208
 55a:	94 e6       	ldi	r25, 0x64	; 100
 55c:	09 9f       	mul	r16, r25
 55e:	80 0d       	add	r24, r0
 560:	11 24       	eor	r1, r1
 562:	9a e0       	ldi	r25, 0x0A	; 10
 564:	c9 9f       	mul	r28, r25
 566:	80 0d       	add	r24, r0
 568:	11 24       	eor	r1, r1
 56a:	df 91       	pop	r29
 56c:	cf 91       	pop	r28
 56e:	1f 91       	pop	r17
 570:	0f 91       	pop	r16
 572:	08 95       	ret

00000574 <main>:
 574:	cf 93       	push	r28
 576:	df 93       	push	r29
 578:	cd b7       	in	r28, 0x3d	; 61
 57a:	de b7       	in	r29, 0x3e	; 62
 57c:	cc 5b       	subi	r28, 0xBC	; 188
 57e:	d1 09       	sbc	r29, r1
 580:	0f b6       	in	r0, 0x3f	; 63
 582:	f8 94       	cli
 584:	de bf       	out	0x3e, r29	; 62
 586:	0f be       	out	0x3f, r0	; 63
 588:	cd bf       	out	0x3d, r28	; 61
 58a:	0e 94 b0 01 	call	0x360	; 0x360 <initUSART>
 58e:	80 e0       	ldi	r24, 0x00	; 0
 590:	91 e0       	ldi	r25, 0x01	; 1
 592:	0e 94 cf 01 	call	0x39e	; 0x39e <printString>
 596:	0e 94 af 00 	call	0x15e	; 0x15e <blinkTwice>
 59a:	0e 94 4b 00 	call	0x96	; 0x96 <initADC>
 59e:	5e 01       	movw	r10, r28
 5a0:	81 e5       	ldi	r24, 0x51	; 81
 5a2:	a8 0e       	add	r10, r24
 5a4:	b1 1c       	adc	r11, r1
 5a6:	4f ef       	ldi	r20, 0xFF	; 255
 5a8:	51 e0       	ldi	r21, 0x01	; 1
 5aa:	6a e0       	ldi	r22, 0x0A	; 10
 5ac:	c5 01       	movw	r24, r10
 5ae:	0e 94 6e 00 	call	0xdc	; 0xdc <initValues>
 5b2:	6e 01       	movw	r12, r28
 5b4:	95 e6       	ldi	r25, 0x65	; 101
 5b6:	c9 0e       	add	r12, r25
 5b8:	d1 1c       	adc	r13, r1
 5ba:	4f ef       	ldi	r20, 0xFF	; 255
 5bc:	51 e0       	ldi	r21, 0x01	; 1
 5be:	6a e0       	ldi	r22, 0x0A	; 10
 5c0:	c6 01       	movw	r24, r12
 5c2:	0e 94 6e 00 	call	0xdc	; 0xdc <initValues>
 5c6:	40 e0       	ldi	r20, 0x00	; 0
 5c8:	50 e0       	ldi	r21, 0x00	; 0
 5ca:	64 e1       	ldi	r22, 0x14	; 20
 5cc:	ee 24       	eor	r14, r14
 5ce:	e3 94       	inc	r14
 5d0:	f1 2c       	mov	r15, r1
 5d2:	ec 0e       	add	r14, r28
 5d4:	fd 1e       	adc	r15, r29
 5d6:	c7 01       	movw	r24, r14
 5d8:	0e 94 6e 00 	call	0xdc	; 0xdc <initValues>
 5dc:	8e 01       	movw	r16, r28
 5de:	07 5d       	subi	r16, 0xD7	; 215
 5e0:	1f 4f       	sbci	r17, 0xFF	; 255
 5e2:	40 e0       	ldi	r20, 0x00	; 0
 5e4:	50 e0       	ldi	r21, 0x00	; 0
 5e6:	64 e1       	ldi	r22, 0x14	; 20
 5e8:	c8 01       	movw	r24, r16
 5ea:	0e 94 6e 00 	call	0xdc	; 0xdc <initValues>
 5ee:	25 01       	movw	r4, r10
 5f0:	36 01       	movw	r6, r12
 5f2:	cb 54       	subi	r28, 0x4B	; 75
 5f4:	df 4f       	sbci	r29, 0xFF	; 255
 5f6:	e8 82       	st	Y, r14
 5f8:	c5 5b       	subi	r28, 0xB5	; 181
 5fa:	d0 40       	sbci	r29, 0x00	; 0
 5fc:	ca 54       	subi	r28, 0x4A	; 74
 5fe:	df 4f       	sbci	r29, 0xFF	; 255
 600:	f8 82       	st	Y, r15
 602:	c6 5b       	subi	r28, 0xB6	; 182
 604:	d0 40       	sbci	r29, 0x00	; 0
 606:	18 01       	movw	r2, r16
 608:	05 e1       	ldi	r16, 0x15	; 21
 60a:	11 e0       	ldi	r17, 0x01	; 1
 60c:	4e 01       	movw	r8, r28
 60e:	86 ea       	ldi	r24, 0xA6	; 166
 610:	88 0e       	add	r8, r24
 612:	91 1c       	adc	r9, r1
 614:	5e 01       	movw	r10, r28
 616:	97 e9       	ldi	r25, 0x97	; 151
 618:	a9 0e       	add	r10, r25
 61a:	b1 1c       	adc	r11, r1
 61c:	6e 01       	movw	r12, r28
 61e:	88 e8       	ldi	r24, 0x88	; 136
 620:	c8 0e       	add	r12, r24
 622:	d1 1c       	adc	r13, r1
 624:	7e 01       	movw	r14, r28
 626:	99 e7       	ldi	r25, 0x79	; 121
 628:	e9 0e       	add	r14, r25
 62a:	f1 1c       	adc	r15, r1
 62c:	40 e0       	ldi	r20, 0x00	; 0
 62e:	6a e0       	ldi	r22, 0x0A	; 10
 630:	c2 01       	movw	r24, r4
 632:	0e 94 78 00 	call	0xf0	; 0xf0 <storeNewADC>
 636:	6a e0       	ldi	r22, 0x0A	; 10
 638:	c2 01       	movw	r24, r4
 63a:	0e 94 98 00 	call	0x130	; 0x130 <getAverage>
 63e:	58 2f       	mov	r21, r24
 640:	79 2f       	mov	r23, r25
 642:	41 e0       	ldi	r20, 0x01	; 1
 644:	6a e0       	ldi	r22, 0x0A	; 10
 646:	c3 01       	movw	r24, r6
 648:	c7 54       	subi	r28, 0x47	; 71
 64a:	df 4f       	sbci	r29, 0xFF	; 255
 64c:	58 83       	st	Y, r21
 64e:	c9 5b       	subi	r28, 0xB9	; 185
 650:	d0 40       	sbci	r29, 0x00	; 0
 652:	c6 54       	subi	r28, 0x46	; 70
 654:	df 4f       	sbci	r29, 0xFF	; 255
 656:	78 83       	st	Y, r23
 658:	ca 5b       	subi	r28, 0xBA	; 186
 65a:	d0 40       	sbci	r29, 0x00	; 0
 65c:	0e 94 78 00 	call	0xf0	; 0xf0 <storeNewADC>
 660:	6a e0       	ldi	r22, 0x0A	; 10
 662:	c3 01       	movw	r24, r6
 664:	0e 94 98 00 	call	0x130	; 0x130 <getAverage>
 668:	9c 01       	movw	r18, r24
 66a:	42 e0       	ldi	r20, 0x02	; 2
 66c:	64 e1       	ldi	r22, 0x14	; 20
 66e:	cb 54       	subi	r28, 0x4B	; 75
 670:	df 4f       	sbci	r29, 0xFF	; 255
 672:	88 81       	ld	r24, Y
 674:	c5 5b       	subi	r28, 0xB5	; 181
 676:	d0 40       	sbci	r29, 0x00	; 0
 678:	ca 54       	subi	r28, 0x4A	; 74
 67a:	df 4f       	sbci	r29, 0xFF	; 255
 67c:	98 81       	ld	r25, Y
 67e:	c6 5b       	subi	r28, 0xB6	; 182
 680:	d0 40       	sbci	r29, 0x00	; 0
 682:	c5 54       	subi	r28, 0x45	; 69
 684:	df 4f       	sbci	r29, 0xFF	; 255
 686:	28 83       	st	Y, r18
 688:	cb 5b       	subi	r28, 0xBB	; 187
 68a:	d0 40       	sbci	r29, 0x00	; 0
 68c:	c4 54       	subi	r28, 0x44	; 68
 68e:	df 4f       	sbci	r29, 0xFF	; 255
 690:	38 83       	st	Y, r19
 692:	cc 5b       	subi	r28, 0xBC	; 188
 694:	d0 40       	sbci	r29, 0x00	; 0
 696:	0e 94 78 00 	call	0xf0	; 0xf0 <storeNewADC>
 69a:	64 e1       	ldi	r22, 0x14	; 20
 69c:	cb 54       	subi	r28, 0x4B	; 75
 69e:	df 4f       	sbci	r29, 0xFF	; 255
 6a0:	88 81       	ld	r24, Y
 6a2:	c5 5b       	subi	r28, 0xB5	; 181
 6a4:	d0 40       	sbci	r29, 0x00	; 0
 6a6:	ca 54       	subi	r28, 0x4A	; 74
 6a8:	df 4f       	sbci	r29, 0xFF	; 255
 6aa:	98 81       	ld	r25, Y
 6ac:	c6 5b       	subi	r28, 0xB6	; 182
 6ae:	d0 40       	sbci	r29, 0x00	; 0
 6b0:	0e 94 98 00 	call	0x130	; 0x130 <getAverage>
 6b4:	c9 54       	subi	r28, 0x49	; 73
 6b6:	df 4f       	sbci	r29, 0xFF	; 255
 6b8:	88 83       	st	Y, r24
 6ba:	c7 5b       	subi	r28, 0xB7	; 183
 6bc:	d0 40       	sbci	r29, 0x00	; 0
 6be:	c8 54       	subi	r28, 0x48	; 72
 6c0:	df 4f       	sbci	r29, 0xFF	; 255
 6c2:	98 83       	st	Y, r25
 6c4:	c8 5b       	subi	r28, 0xB8	; 184
 6c6:	d0 40       	sbci	r29, 0x00	; 0
 6c8:	43 e0       	ldi	r20, 0x03	; 3
 6ca:	64 e1       	ldi	r22, 0x14	; 20
 6cc:	c1 01       	movw	r24, r2
 6ce:	0e 94 78 00 	call	0xf0	; 0xf0 <storeNewADC>
 6d2:	64 e1       	ldi	r22, 0x14	; 20
 6d4:	c1 01       	movw	r24, r2
 6d6:	0e 94 98 00 	call	0x130	; 0x130 <getAverage>
 6da:	c6 54       	subi	r28, 0x46	; 70
 6dc:	df 4f       	sbci	r29, 0xFF	; 255
 6de:	78 81       	ld	r23, Y
 6e0:	ca 5b       	subi	r28, 0xBA	; 186
 6e2:	d0 40       	sbci	r29, 0x00	; 0
 6e4:	7f 93       	push	r23
 6e6:	c7 54       	subi	r28, 0x47	; 71
 6e8:	df 4f       	sbci	r29, 0xFF	; 255
 6ea:	58 81       	ld	r21, Y
 6ec:	c9 5b       	subi	r28, 0xB9	; 185
 6ee:	d0 40       	sbci	r29, 0x00	; 0
 6f0:	5f 93       	push	r21
 6f2:	1f 93       	push	r17
 6f4:	0f 93       	push	r16
 6f6:	9f 92       	push	r9
 6f8:	8f 92       	push	r8
 6fa:	c7 54       	subi	r28, 0x47	; 71
 6fc:	df 4f       	sbci	r29, 0xFF	; 255
 6fe:	88 83       	st	Y, r24
 700:	c9 5b       	subi	r28, 0xB9	; 185
 702:	d0 40       	sbci	r29, 0x00	; 0
 704:	c6 54       	subi	r28, 0x46	; 70
 706:	df 4f       	sbci	r29, 0xFF	; 255
 708:	98 83       	st	Y, r25
 70a:	ca 5b       	subi	r28, 0xBA	; 186
 70c:	d0 40       	sbci	r29, 0x00	; 0
 70e:	0e 94 27 04 	call	0x84e	; 0x84e <sprintf>
 712:	c4 54       	subi	r28, 0x44	; 68
 714:	df 4f       	sbci	r29, 0xFF	; 255
 716:	38 81       	ld	r19, Y
 718:	cc 5b       	subi	r28, 0xBC	; 188
 71a:	d0 40       	sbci	r29, 0x00	; 0
 71c:	3f 93       	push	r19
 71e:	c5 54       	subi	r28, 0x45	; 69
 720:	df 4f       	sbci	r29, 0xFF	; 255
 722:	28 81       	ld	r18, Y
 724:	cb 5b       	subi	r28, 0xBB	; 187
 726:	d0 40       	sbci	r29, 0x00	; 0
 728:	2f 93       	push	r18
 72a:	1f 93       	push	r17
 72c:	0f 93       	push	r16
 72e:	bf 92       	push	r11
 730:	af 92       	push	r10
 732:	0e 94 27 04 	call	0x84e	; 0x84e <sprintf>
 736:	c8 54       	subi	r28, 0x48	; 72
 738:	df 4f       	sbci	r29, 0xFF	; 255
 73a:	88 81       	ld	r24, Y
 73c:	c8 5b       	subi	r28, 0xB8	; 184
 73e:	d0 40       	sbci	r29, 0x00	; 0
 740:	8f 93       	push	r24
 742:	c9 54       	subi	r28, 0x49	; 73
 744:	df 4f       	sbci	r29, 0xFF	; 255
 746:	98 81       	ld	r25, Y
 748:	c7 5b       	subi	r28, 0xB7	; 183
 74a:	d0 40       	sbci	r29, 0x00	; 0
 74c:	9f 93       	push	r25
 74e:	1f 93       	push	r17
 750:	0f 93       	push	r16
 752:	df 92       	push	r13
 754:	cf 92       	push	r12
 756:	0e 94 27 04 	call	0x84e	; 0x84e <sprintf>
 75a:	c6 54       	subi	r28, 0x46	; 70
 75c:	df 4f       	sbci	r29, 0xFF	; 255
 75e:	68 81       	ld	r22, Y
 760:	ca 5b       	subi	r28, 0xBA	; 186
 762:	d0 40       	sbci	r29, 0x00	; 0
 764:	6f 93       	push	r22
 766:	c7 54       	subi	r28, 0x47	; 71
 768:	df 4f       	sbci	r29, 0xFF	; 255
 76a:	48 81       	ld	r20, Y
 76c:	c9 5b       	subi	r28, 0xB9	; 185
 76e:	d0 40       	sbci	r29, 0x00	; 0
 770:	4f 93       	push	r20
 772:	1f 93       	push	r17
 774:	0f 93       	push	r16
 776:	ff 92       	push	r15
 778:	ef 92       	push	r14
 77a:	0e 94 27 04 	call	0x84e	; 0x84e <sprintf>
 77e:	88 e1       	ldi	r24, 0x18	; 24
 780:	91 e0       	ldi	r25, 0x01	; 1
 782:	0e 94 cf 01 	call	0x39e	; 0x39e <printString>
 786:	c4 01       	movw	r24, r8
 788:	0e 94 cf 01 	call	0x39e	; 0x39e <printString>
 78c:	8d e1       	ldi	r24, 0x1D	; 29
 78e:	91 e0       	ldi	r25, 0x01	; 1
 790:	0e 94 cf 01 	call	0x39e	; 0x39e <printString>
 794:	c5 01       	movw	r24, r10
 796:	0e 94 cf 01 	call	0x39e	; 0x39e <printString>
 79a:	82 e2       	ldi	r24, 0x22	; 34
 79c:	91 e0       	ldi	r25, 0x01	; 1
 79e:	0e 94 cf 01 	call	0x39e	; 0x39e <printString>
 7a2:	c6 01       	movw	r24, r12
 7a4:	0e 94 cf 01 	call	0x39e	; 0x39e <printString>
 7a8:	87 e2       	ldi	r24, 0x27	; 39
 7aa:	91 e0       	ldi	r25, 0x01	; 1
 7ac:	0e 94 cf 01 	call	0x39e	; 0x39e <printString>
 7b0:	c7 01       	movw	r24, r14
 7b2:	0e 94 cf 01 	call	0x39e	; 0x39e <printString>
 7b6:	82 e1       	ldi	r24, 0x12	; 18
 7b8:	91 e0       	ldi	r25, 0x01	; 1
 7ba:	0e 94 cf 01 	call	0x39e	; 0x39e <printString>
 7be:	0f b6       	in	r0, 0x3f	; 63
 7c0:	f8 94       	cli
 7c2:	de bf       	out	0x3e, r29	; 62
 7c4:	0f be       	out	0x3f, r0	; 63
 7c6:	cd bf       	out	0x3d, r28	; 61
 7c8:	31 cf       	rjmp	.-414    	; 0x62c <main+0xb8>

000007ca <__udivmodqi4>:
 7ca:	99 1b       	sub	r25, r25
 7cc:	79 e0       	ldi	r23, 0x09	; 9
 7ce:	04 c0       	rjmp	.+8      	; 0x7d8 <__udivmodqi4_ep>

000007d0 <__udivmodqi4_loop>:
 7d0:	99 1f       	adc	r25, r25
 7d2:	96 17       	cp	r25, r22
 7d4:	08 f0       	brcs	.+2      	; 0x7d8 <__udivmodqi4_ep>
 7d6:	96 1b       	sub	r25, r22

000007d8 <__udivmodqi4_ep>:
 7d8:	88 1f       	adc	r24, r24
 7da:	7a 95       	dec	r23
 7dc:	c9 f7       	brne	.-14     	; 0x7d0 <__udivmodqi4_loop>
 7de:	80 95       	com	r24
 7e0:	08 95       	ret

000007e2 <__udivmodhi4>:
 7e2:	aa 1b       	sub	r26, r26
 7e4:	bb 1b       	sub	r27, r27
 7e6:	51 e1       	ldi	r21, 0x11	; 17
 7e8:	07 c0       	rjmp	.+14     	; 0x7f8 <__udivmodhi4_ep>

000007ea <__udivmodhi4_loop>:
 7ea:	aa 1f       	adc	r26, r26
 7ec:	bb 1f       	adc	r27, r27
 7ee:	a6 17       	cp	r26, r22
 7f0:	b7 07       	cpc	r27, r23
 7f2:	10 f0       	brcs	.+4      	; 0x7f8 <__udivmodhi4_ep>
 7f4:	a6 1b       	sub	r26, r22
 7f6:	b7 0b       	sbc	r27, r23

000007f8 <__udivmodhi4_ep>:
 7f8:	88 1f       	adc	r24, r24
 7fa:	99 1f       	adc	r25, r25
 7fc:	5a 95       	dec	r21
 7fe:	a9 f7       	brne	.-22     	; 0x7ea <__udivmodhi4_loop>
 800:	80 95       	com	r24
 802:	90 95       	com	r25
 804:	bc 01       	movw	r22, r24
 806:	cd 01       	movw	r24, r26
 808:	08 95       	ret

0000080a <__udivmodsi4>:
 80a:	a1 e2       	ldi	r26, 0x21	; 33
 80c:	1a 2e       	mov	r1, r26
 80e:	aa 1b       	sub	r26, r26
 810:	bb 1b       	sub	r27, r27
 812:	fd 01       	movw	r30, r26
 814:	0d c0       	rjmp	.+26     	; 0x830 <__udivmodsi4_ep>

00000816 <__udivmodsi4_loop>:
 816:	aa 1f       	adc	r26, r26
 818:	bb 1f       	adc	r27, r27
 81a:	ee 1f       	adc	r30, r30
 81c:	ff 1f       	adc	r31, r31
 81e:	a2 17       	cp	r26, r18
 820:	b3 07       	cpc	r27, r19
 822:	e4 07       	cpc	r30, r20
 824:	f5 07       	cpc	r31, r21
 826:	20 f0       	brcs	.+8      	; 0x830 <__udivmodsi4_ep>
 828:	a2 1b       	sub	r26, r18
 82a:	b3 0b       	sbc	r27, r19
 82c:	e4 0b       	sbc	r30, r20
 82e:	f5 0b       	sbc	r31, r21

00000830 <__udivmodsi4_ep>:
 830:	66 1f       	adc	r22, r22
 832:	77 1f       	adc	r23, r23
 834:	88 1f       	adc	r24, r24
 836:	99 1f       	adc	r25, r25
 838:	1a 94       	dec	r1
 83a:	69 f7       	brne	.-38     	; 0x816 <__udivmodsi4_loop>
 83c:	60 95       	com	r22
 83e:	70 95       	com	r23
 840:	80 95       	com	r24
 842:	90 95       	com	r25
 844:	9b 01       	movw	r18, r22
 846:	ac 01       	movw	r20, r24
 848:	bd 01       	movw	r22, r26
 84a:	cf 01       	movw	r24, r30
 84c:	08 95       	ret

0000084e <sprintf>:
 84e:	ae e0       	ldi	r26, 0x0E	; 14
 850:	b0 e0       	ldi	r27, 0x00	; 0
 852:	ed e2       	ldi	r30, 0x2D	; 45
 854:	f4 e0       	ldi	r31, 0x04	; 4
 856:	0c 94 cf 06 	jmp	0xd9e	; 0xd9e <__prologue_saves__+0x1c>
 85a:	0d 89       	ldd	r16, Y+21	; 0x15
 85c:	1e 89       	ldd	r17, Y+22	; 0x16
 85e:	86 e0       	ldi	r24, 0x06	; 6
 860:	8c 83       	std	Y+4, r24	; 0x04
 862:	1a 83       	std	Y+2, r17	; 0x02
 864:	09 83       	std	Y+1, r16	; 0x01
 866:	8f ef       	ldi	r24, 0xFF	; 255
 868:	9f e7       	ldi	r25, 0x7F	; 127
 86a:	9e 83       	std	Y+6, r25	; 0x06
 86c:	8d 83       	std	Y+5, r24	; 0x05
 86e:	ae 01       	movw	r20, r28
 870:	47 5e       	subi	r20, 0xE7	; 231
 872:	5f 4f       	sbci	r21, 0xFF	; 255
 874:	6f 89       	ldd	r22, Y+23	; 0x17
 876:	78 8d       	ldd	r23, Y+24	; 0x18
 878:	ce 01       	movw	r24, r28
 87a:	01 96       	adiw	r24, 0x01	; 1
 87c:	0e 94 49 04 	call	0x892	; 0x892 <vfprintf>
 880:	ef 81       	ldd	r30, Y+7	; 0x07
 882:	f8 85       	ldd	r31, Y+8	; 0x08
 884:	e0 0f       	add	r30, r16
 886:	f1 1f       	adc	r31, r17
 888:	10 82       	st	Z, r1
 88a:	2e 96       	adiw	r28, 0x0e	; 14
 88c:	e4 e0       	ldi	r30, 0x04	; 4
 88e:	0c 94 eb 06 	jmp	0xdd6	; 0xdd6 <__epilogue_restores__+0x1c>

00000892 <vfprintf>:
 892:	ac e0       	ldi	r26, 0x0C	; 12
 894:	b0 e0       	ldi	r27, 0x00	; 0
 896:	ef e4       	ldi	r30, 0x4F	; 79
 898:	f4 e0       	ldi	r31, 0x04	; 4
 89a:	0c 94 c1 06 	jmp	0xd82	; 0xd82 <__prologue_saves__>
 89e:	7c 01       	movw	r14, r24
 8a0:	6b 01       	movw	r12, r22
 8a2:	8a 01       	movw	r16, r20
 8a4:	fc 01       	movw	r30, r24
 8a6:	17 82       	std	Z+7, r1	; 0x07
 8a8:	16 82       	std	Z+6, r1	; 0x06
 8aa:	83 81       	ldd	r24, Z+3	; 0x03
 8ac:	81 ff       	sbrs	r24, 1
 8ae:	bd c1       	rjmp	.+890    	; 0xc2a <__stack+0x32b>
 8b0:	ce 01       	movw	r24, r28
 8b2:	01 96       	adiw	r24, 0x01	; 1
 8b4:	4c 01       	movw	r8, r24
 8b6:	f7 01       	movw	r30, r14
 8b8:	93 81       	ldd	r25, Z+3	; 0x03
 8ba:	f6 01       	movw	r30, r12
 8bc:	93 fd       	sbrc	r25, 3
 8be:	85 91       	lpm	r24, Z+
 8c0:	93 ff       	sbrs	r25, 3
 8c2:	81 91       	ld	r24, Z+
 8c4:	6f 01       	movw	r12, r30
 8c6:	88 23       	and	r24, r24
 8c8:	09 f4       	brne	.+2      	; 0x8cc <vfprintf+0x3a>
 8ca:	ab c1       	rjmp	.+854    	; 0xc22 <__stack+0x323>
 8cc:	85 32       	cpi	r24, 0x25	; 37
 8ce:	39 f4       	brne	.+14     	; 0x8de <vfprintf+0x4c>
 8d0:	93 fd       	sbrc	r25, 3
 8d2:	85 91       	lpm	r24, Z+
 8d4:	93 ff       	sbrs	r25, 3
 8d6:	81 91       	ld	r24, Z+
 8d8:	6f 01       	movw	r12, r30
 8da:	85 32       	cpi	r24, 0x25	; 37
 8dc:	29 f4       	brne	.+10     	; 0x8e8 <vfprintf+0x56>
 8de:	b7 01       	movw	r22, r14
 8e0:	90 e0       	ldi	r25, 0x00	; 0
 8e2:	0e 94 31 06 	call	0xc62	; 0xc62 <fputc>
 8e6:	e7 cf       	rjmp	.-50     	; 0x8b6 <vfprintf+0x24>
 8e8:	51 2c       	mov	r5, r1
 8ea:	31 2c       	mov	r3, r1
 8ec:	20 e0       	ldi	r18, 0x00	; 0
 8ee:	20 32       	cpi	r18, 0x20	; 32
 8f0:	a0 f4       	brcc	.+40     	; 0x91a <__stack+0x1b>
 8f2:	8b 32       	cpi	r24, 0x2B	; 43
 8f4:	69 f0       	breq	.+26     	; 0x910 <__stack+0x11>
 8f6:	30 f4       	brcc	.+12     	; 0x904 <__stack+0x5>
 8f8:	80 32       	cpi	r24, 0x20	; 32
 8fa:	59 f0       	breq	.+22     	; 0x912 <__stack+0x13>
 8fc:	83 32       	cpi	r24, 0x23	; 35
 8fe:	69 f4       	brne	.+26     	; 0x91a <__stack+0x1b>
 900:	20 61       	ori	r18, 0x10	; 16
 902:	2c c0       	rjmp	.+88     	; 0x95c <__stack+0x5d>
 904:	8d 32       	cpi	r24, 0x2D	; 45
 906:	39 f0       	breq	.+14     	; 0x916 <__stack+0x17>
 908:	80 33       	cpi	r24, 0x30	; 48
 90a:	39 f4       	brne	.+14     	; 0x91a <__stack+0x1b>
 90c:	21 60       	ori	r18, 0x01	; 1
 90e:	26 c0       	rjmp	.+76     	; 0x95c <__stack+0x5d>
 910:	22 60       	ori	r18, 0x02	; 2
 912:	24 60       	ori	r18, 0x04	; 4
 914:	23 c0       	rjmp	.+70     	; 0x95c <__stack+0x5d>
 916:	28 60       	ori	r18, 0x08	; 8
 918:	21 c0       	rjmp	.+66     	; 0x95c <__stack+0x5d>
 91a:	27 fd       	sbrc	r18, 7
 91c:	27 c0       	rjmp	.+78     	; 0x96c <__stack+0x6d>
 91e:	30 ed       	ldi	r19, 0xD0	; 208
 920:	38 0f       	add	r19, r24
 922:	3a 30       	cpi	r19, 0x0A	; 10
 924:	78 f4       	brcc	.+30     	; 0x944 <__stack+0x45>
 926:	26 ff       	sbrs	r18, 6
 928:	06 c0       	rjmp	.+12     	; 0x936 <__stack+0x37>
 92a:	fa e0       	ldi	r31, 0x0A	; 10
 92c:	5f 9e       	mul	r5, r31
 92e:	30 0d       	add	r19, r0
 930:	11 24       	eor	r1, r1
 932:	53 2e       	mov	r5, r19
 934:	13 c0       	rjmp	.+38     	; 0x95c <__stack+0x5d>
 936:	8a e0       	ldi	r24, 0x0A	; 10
 938:	38 9e       	mul	r3, r24
 93a:	30 0d       	add	r19, r0
 93c:	11 24       	eor	r1, r1
 93e:	33 2e       	mov	r3, r19
 940:	20 62       	ori	r18, 0x20	; 32
 942:	0c c0       	rjmp	.+24     	; 0x95c <__stack+0x5d>
 944:	8e 32       	cpi	r24, 0x2E	; 46
 946:	21 f4       	brne	.+8      	; 0x950 <__stack+0x51>
 948:	26 fd       	sbrc	r18, 6
 94a:	6b c1       	rjmp	.+726    	; 0xc22 <__stack+0x323>
 94c:	20 64       	ori	r18, 0x40	; 64
 94e:	06 c0       	rjmp	.+12     	; 0x95c <__stack+0x5d>
 950:	8c 36       	cpi	r24, 0x6C	; 108
 952:	11 f4       	brne	.+4      	; 0x958 <__stack+0x59>
 954:	20 68       	ori	r18, 0x80	; 128
 956:	02 c0       	rjmp	.+4      	; 0x95c <__stack+0x5d>
 958:	88 36       	cpi	r24, 0x68	; 104
 95a:	41 f4       	brne	.+16     	; 0x96c <__stack+0x6d>
 95c:	f6 01       	movw	r30, r12
 95e:	93 fd       	sbrc	r25, 3
 960:	85 91       	lpm	r24, Z+
 962:	93 ff       	sbrs	r25, 3
 964:	81 91       	ld	r24, Z+
 966:	6f 01       	movw	r12, r30
 968:	81 11       	cpse	r24, r1
 96a:	c1 cf       	rjmp	.-126    	; 0x8ee <vfprintf+0x5c>
 96c:	98 2f       	mov	r25, r24
 96e:	9f 7d       	andi	r25, 0xDF	; 223
 970:	95 54       	subi	r25, 0x45	; 69
 972:	93 30       	cpi	r25, 0x03	; 3
 974:	28 f4       	brcc	.+10     	; 0x980 <__stack+0x81>
 976:	0c 5f       	subi	r16, 0xFC	; 252
 978:	1f 4f       	sbci	r17, 0xFF	; 255
 97a:	ff e3       	ldi	r31, 0x3F	; 63
 97c:	f9 83       	std	Y+1, r31	; 0x01
 97e:	0d c0       	rjmp	.+26     	; 0x99a <__stack+0x9b>
 980:	83 36       	cpi	r24, 0x63	; 99
 982:	31 f0       	breq	.+12     	; 0x990 <__stack+0x91>
 984:	83 37       	cpi	r24, 0x73	; 115
 986:	71 f0       	breq	.+28     	; 0x9a4 <__stack+0xa5>
 988:	83 35       	cpi	r24, 0x53	; 83
 98a:	09 f0       	breq	.+2      	; 0x98e <__stack+0x8f>
 98c:	5b c0       	rjmp	.+182    	; 0xa44 <__stack+0x145>
 98e:	22 c0       	rjmp	.+68     	; 0x9d4 <__stack+0xd5>
 990:	f8 01       	movw	r30, r16
 992:	80 81       	ld	r24, Z
 994:	89 83       	std	Y+1, r24	; 0x01
 996:	0e 5f       	subi	r16, 0xFE	; 254
 998:	1f 4f       	sbci	r17, 0xFF	; 255
 99a:	44 24       	eor	r4, r4
 99c:	43 94       	inc	r4
 99e:	51 2c       	mov	r5, r1
 9a0:	54 01       	movw	r10, r8
 9a2:	15 c0       	rjmp	.+42     	; 0x9ce <__stack+0xcf>
 9a4:	38 01       	movw	r6, r16
 9a6:	f2 e0       	ldi	r31, 0x02	; 2
 9a8:	6f 0e       	add	r6, r31
 9aa:	71 1c       	adc	r7, r1
 9ac:	f8 01       	movw	r30, r16
 9ae:	a0 80       	ld	r10, Z
 9b0:	b1 80       	ldd	r11, Z+1	; 0x01
 9b2:	26 ff       	sbrs	r18, 6
 9b4:	03 c0       	rjmp	.+6      	; 0x9bc <__stack+0xbd>
 9b6:	65 2d       	mov	r22, r5
 9b8:	70 e0       	ldi	r23, 0x00	; 0
 9ba:	02 c0       	rjmp	.+4      	; 0x9c0 <__stack+0xc1>
 9bc:	6f ef       	ldi	r22, 0xFF	; 255
 9be:	7f ef       	ldi	r23, 0xFF	; 255
 9c0:	c5 01       	movw	r24, r10
 9c2:	2c 87       	std	Y+12, r18	; 0x0c
 9c4:	0e 94 26 06 	call	0xc4c	; 0xc4c <strnlen>
 9c8:	2c 01       	movw	r4, r24
 9ca:	83 01       	movw	r16, r6
 9cc:	2c 85       	ldd	r18, Y+12	; 0x0c
 9ce:	2f 77       	andi	r18, 0x7F	; 127
 9d0:	22 2e       	mov	r2, r18
 9d2:	17 c0       	rjmp	.+46     	; 0xa02 <__stack+0x103>
 9d4:	38 01       	movw	r6, r16
 9d6:	f2 e0       	ldi	r31, 0x02	; 2
 9d8:	6f 0e       	add	r6, r31
 9da:	71 1c       	adc	r7, r1
 9dc:	f8 01       	movw	r30, r16
 9de:	a0 80       	ld	r10, Z
 9e0:	b1 80       	ldd	r11, Z+1	; 0x01
 9e2:	26 ff       	sbrs	r18, 6
 9e4:	03 c0       	rjmp	.+6      	; 0x9ec <__stack+0xed>
 9e6:	65 2d       	mov	r22, r5
 9e8:	70 e0       	ldi	r23, 0x00	; 0
 9ea:	02 c0       	rjmp	.+4      	; 0x9f0 <__stack+0xf1>
 9ec:	6f ef       	ldi	r22, 0xFF	; 255
 9ee:	7f ef       	ldi	r23, 0xFF	; 255
 9f0:	c5 01       	movw	r24, r10
 9f2:	2c 87       	std	Y+12, r18	; 0x0c
 9f4:	0e 94 1b 06 	call	0xc36	; 0xc36 <strnlen_P>
 9f8:	2c 01       	movw	r4, r24
 9fa:	2c 85       	ldd	r18, Y+12	; 0x0c
 9fc:	20 68       	ori	r18, 0x80	; 128
 9fe:	22 2e       	mov	r2, r18
 a00:	83 01       	movw	r16, r6
 a02:	23 fc       	sbrc	r2, 3
 a04:	1b c0       	rjmp	.+54     	; 0xa3c <__stack+0x13d>
 a06:	83 2d       	mov	r24, r3
 a08:	90 e0       	ldi	r25, 0x00	; 0
 a0a:	48 16       	cp	r4, r24
 a0c:	59 06       	cpc	r5, r25
 a0e:	b0 f4       	brcc	.+44     	; 0xa3c <__stack+0x13d>
 a10:	b7 01       	movw	r22, r14
 a12:	80 e2       	ldi	r24, 0x20	; 32
 a14:	90 e0       	ldi	r25, 0x00	; 0
 a16:	0e 94 31 06 	call	0xc62	; 0xc62 <fputc>
 a1a:	3a 94       	dec	r3
 a1c:	f4 cf       	rjmp	.-24     	; 0xa06 <__stack+0x107>
 a1e:	f5 01       	movw	r30, r10
 a20:	27 fc       	sbrc	r2, 7
 a22:	85 91       	lpm	r24, Z+
 a24:	27 fe       	sbrs	r2, 7
 a26:	81 91       	ld	r24, Z+
 a28:	5f 01       	movw	r10, r30
 a2a:	b7 01       	movw	r22, r14
 a2c:	90 e0       	ldi	r25, 0x00	; 0
 a2e:	0e 94 31 06 	call	0xc62	; 0xc62 <fputc>
 a32:	31 10       	cpse	r3, r1
 a34:	3a 94       	dec	r3
 a36:	f1 e0       	ldi	r31, 0x01	; 1
 a38:	4f 1a       	sub	r4, r31
 a3a:	51 08       	sbc	r5, r1
 a3c:	41 14       	cp	r4, r1
 a3e:	51 04       	cpc	r5, r1
 a40:	71 f7       	brne	.-36     	; 0xa1e <__stack+0x11f>
 a42:	e5 c0       	rjmp	.+458    	; 0xc0e <__stack+0x30f>
 a44:	84 36       	cpi	r24, 0x64	; 100
 a46:	11 f0       	breq	.+4      	; 0xa4c <__stack+0x14d>
 a48:	89 36       	cpi	r24, 0x69	; 105
 a4a:	39 f5       	brne	.+78     	; 0xa9a <__stack+0x19b>
 a4c:	f8 01       	movw	r30, r16
 a4e:	27 ff       	sbrs	r18, 7
 a50:	07 c0       	rjmp	.+14     	; 0xa60 <__stack+0x161>
 a52:	60 81       	ld	r22, Z
 a54:	71 81       	ldd	r23, Z+1	; 0x01
 a56:	82 81       	ldd	r24, Z+2	; 0x02
 a58:	93 81       	ldd	r25, Z+3	; 0x03
 a5a:	0c 5f       	subi	r16, 0xFC	; 252
 a5c:	1f 4f       	sbci	r17, 0xFF	; 255
 a5e:	08 c0       	rjmp	.+16     	; 0xa70 <__stack+0x171>
 a60:	60 81       	ld	r22, Z
 a62:	71 81       	ldd	r23, Z+1	; 0x01
 a64:	88 27       	eor	r24, r24
 a66:	77 fd       	sbrc	r23, 7
 a68:	80 95       	com	r24
 a6a:	98 2f       	mov	r25, r24
 a6c:	0e 5f       	subi	r16, 0xFE	; 254
 a6e:	1f 4f       	sbci	r17, 0xFF	; 255
 a70:	2f 76       	andi	r18, 0x6F	; 111
 a72:	b2 2e       	mov	r11, r18
 a74:	97 ff       	sbrs	r25, 7
 a76:	09 c0       	rjmp	.+18     	; 0xa8a <__stack+0x18b>
 a78:	90 95       	com	r25
 a7a:	80 95       	com	r24
 a7c:	70 95       	com	r23
 a7e:	61 95       	neg	r22
 a80:	7f 4f       	sbci	r23, 0xFF	; 255
 a82:	8f 4f       	sbci	r24, 0xFF	; 255
 a84:	9f 4f       	sbci	r25, 0xFF	; 255
 a86:	20 68       	ori	r18, 0x80	; 128
 a88:	b2 2e       	mov	r11, r18
 a8a:	2a e0       	ldi	r18, 0x0A	; 10
 a8c:	30 e0       	ldi	r19, 0x00	; 0
 a8e:	a4 01       	movw	r20, r8
 a90:	0e 94 63 06 	call	0xcc6	; 0xcc6 <__ultoa_invert>
 a94:	a8 2e       	mov	r10, r24
 a96:	a8 18       	sub	r10, r8
 a98:	44 c0       	rjmp	.+136    	; 0xb22 <__stack+0x223>
 a9a:	85 37       	cpi	r24, 0x75	; 117
 a9c:	29 f4       	brne	.+10     	; 0xaa8 <__stack+0x1a9>
 a9e:	2f 7e       	andi	r18, 0xEF	; 239
 aa0:	b2 2e       	mov	r11, r18
 aa2:	2a e0       	ldi	r18, 0x0A	; 10
 aa4:	30 e0       	ldi	r19, 0x00	; 0
 aa6:	25 c0       	rjmp	.+74     	; 0xaf2 <__stack+0x1f3>
 aa8:	f2 2f       	mov	r31, r18
 aaa:	f9 7f       	andi	r31, 0xF9	; 249
 aac:	bf 2e       	mov	r11, r31
 aae:	8f 36       	cpi	r24, 0x6F	; 111
 ab0:	c1 f0       	breq	.+48     	; 0xae2 <__stack+0x1e3>
 ab2:	18 f4       	brcc	.+6      	; 0xaba <__stack+0x1bb>
 ab4:	88 35       	cpi	r24, 0x58	; 88
 ab6:	79 f0       	breq	.+30     	; 0xad6 <__stack+0x1d7>
 ab8:	b4 c0       	rjmp	.+360    	; 0xc22 <__stack+0x323>
 aba:	80 37       	cpi	r24, 0x70	; 112
 abc:	19 f0       	breq	.+6      	; 0xac4 <__stack+0x1c5>
 abe:	88 37       	cpi	r24, 0x78	; 120
 ac0:	21 f0       	breq	.+8      	; 0xaca <__stack+0x1cb>
 ac2:	af c0       	rjmp	.+350    	; 0xc22 <__stack+0x323>
 ac4:	2f 2f       	mov	r18, r31
 ac6:	20 61       	ori	r18, 0x10	; 16
 ac8:	b2 2e       	mov	r11, r18
 aca:	b4 fe       	sbrs	r11, 4
 acc:	0d c0       	rjmp	.+26     	; 0xae8 <__stack+0x1e9>
 ace:	8b 2d       	mov	r24, r11
 ad0:	84 60       	ori	r24, 0x04	; 4
 ad2:	b8 2e       	mov	r11, r24
 ad4:	09 c0       	rjmp	.+18     	; 0xae8 <__stack+0x1e9>
 ad6:	24 ff       	sbrs	r18, 4
 ad8:	0a c0       	rjmp	.+20     	; 0xaee <__stack+0x1ef>
 ada:	9f 2f       	mov	r25, r31
 adc:	96 60       	ori	r25, 0x06	; 6
 ade:	b9 2e       	mov	r11, r25
 ae0:	06 c0       	rjmp	.+12     	; 0xaee <__stack+0x1ef>
 ae2:	28 e0       	ldi	r18, 0x08	; 8
 ae4:	30 e0       	ldi	r19, 0x00	; 0
 ae6:	05 c0       	rjmp	.+10     	; 0xaf2 <__stack+0x1f3>
 ae8:	20 e1       	ldi	r18, 0x10	; 16
 aea:	30 e0       	ldi	r19, 0x00	; 0
 aec:	02 c0       	rjmp	.+4      	; 0xaf2 <__stack+0x1f3>
 aee:	20 e1       	ldi	r18, 0x10	; 16
 af0:	32 e0       	ldi	r19, 0x02	; 2
 af2:	f8 01       	movw	r30, r16
 af4:	b7 fe       	sbrs	r11, 7
 af6:	07 c0       	rjmp	.+14     	; 0xb06 <__stack+0x207>
 af8:	60 81       	ld	r22, Z
 afa:	71 81       	ldd	r23, Z+1	; 0x01
 afc:	82 81       	ldd	r24, Z+2	; 0x02
 afe:	93 81       	ldd	r25, Z+3	; 0x03
 b00:	0c 5f       	subi	r16, 0xFC	; 252
 b02:	1f 4f       	sbci	r17, 0xFF	; 255
 b04:	06 c0       	rjmp	.+12     	; 0xb12 <__stack+0x213>
 b06:	60 81       	ld	r22, Z
 b08:	71 81       	ldd	r23, Z+1	; 0x01
 b0a:	80 e0       	ldi	r24, 0x00	; 0
 b0c:	90 e0       	ldi	r25, 0x00	; 0
 b0e:	0e 5f       	subi	r16, 0xFE	; 254
 b10:	1f 4f       	sbci	r17, 0xFF	; 255
 b12:	a4 01       	movw	r20, r8
 b14:	0e 94 63 06 	call	0xcc6	; 0xcc6 <__ultoa_invert>
 b18:	a8 2e       	mov	r10, r24
 b1a:	a8 18       	sub	r10, r8
 b1c:	fb 2d       	mov	r31, r11
 b1e:	ff 77       	andi	r31, 0x7F	; 127
 b20:	bf 2e       	mov	r11, r31
 b22:	b6 fe       	sbrs	r11, 6
 b24:	0b c0       	rjmp	.+22     	; 0xb3c <__stack+0x23d>
 b26:	2b 2d       	mov	r18, r11
 b28:	2e 7f       	andi	r18, 0xFE	; 254
 b2a:	a5 14       	cp	r10, r5
 b2c:	50 f4       	brcc	.+20     	; 0xb42 <__stack+0x243>
 b2e:	b4 fe       	sbrs	r11, 4
 b30:	0a c0       	rjmp	.+20     	; 0xb46 <__stack+0x247>
 b32:	b2 fc       	sbrc	r11, 2
 b34:	08 c0       	rjmp	.+16     	; 0xb46 <__stack+0x247>
 b36:	2b 2d       	mov	r18, r11
 b38:	2e 7e       	andi	r18, 0xEE	; 238
 b3a:	05 c0       	rjmp	.+10     	; 0xb46 <__stack+0x247>
 b3c:	7a 2c       	mov	r7, r10
 b3e:	2b 2d       	mov	r18, r11
 b40:	03 c0       	rjmp	.+6      	; 0xb48 <__stack+0x249>
 b42:	7a 2c       	mov	r7, r10
 b44:	01 c0       	rjmp	.+2      	; 0xb48 <__stack+0x249>
 b46:	75 2c       	mov	r7, r5
 b48:	24 ff       	sbrs	r18, 4
 b4a:	0d c0       	rjmp	.+26     	; 0xb66 <__stack+0x267>
 b4c:	fe 01       	movw	r30, r28
 b4e:	ea 0d       	add	r30, r10
 b50:	f1 1d       	adc	r31, r1
 b52:	80 81       	ld	r24, Z
 b54:	80 33       	cpi	r24, 0x30	; 48
 b56:	11 f4       	brne	.+4      	; 0xb5c <__stack+0x25d>
 b58:	29 7e       	andi	r18, 0xE9	; 233
 b5a:	09 c0       	rjmp	.+18     	; 0xb6e <__stack+0x26f>
 b5c:	22 ff       	sbrs	r18, 2
 b5e:	06 c0       	rjmp	.+12     	; 0xb6c <__stack+0x26d>
 b60:	73 94       	inc	r7
 b62:	73 94       	inc	r7
 b64:	04 c0       	rjmp	.+8      	; 0xb6e <__stack+0x26f>
 b66:	82 2f       	mov	r24, r18
 b68:	86 78       	andi	r24, 0x86	; 134
 b6a:	09 f0       	breq	.+2      	; 0xb6e <__stack+0x26f>
 b6c:	73 94       	inc	r7
 b6e:	23 fd       	sbrc	r18, 3
 b70:	13 c0       	rjmp	.+38     	; 0xb98 <__stack+0x299>
 b72:	20 ff       	sbrs	r18, 0
 b74:	06 c0       	rjmp	.+12     	; 0xb82 <__stack+0x283>
 b76:	5a 2c       	mov	r5, r10
 b78:	73 14       	cp	r7, r3
 b7a:	18 f4       	brcc	.+6      	; 0xb82 <__stack+0x283>
 b7c:	53 0c       	add	r5, r3
 b7e:	57 18       	sub	r5, r7
 b80:	73 2c       	mov	r7, r3
 b82:	73 14       	cp	r7, r3
 b84:	68 f4       	brcc	.+26     	; 0xba0 <__stack+0x2a1>
 b86:	b7 01       	movw	r22, r14
 b88:	80 e2       	ldi	r24, 0x20	; 32
 b8a:	90 e0       	ldi	r25, 0x00	; 0
 b8c:	2c 87       	std	Y+12, r18	; 0x0c
 b8e:	0e 94 31 06 	call	0xc62	; 0xc62 <fputc>
 b92:	73 94       	inc	r7
 b94:	2c 85       	ldd	r18, Y+12	; 0x0c
 b96:	f5 cf       	rjmp	.-22     	; 0xb82 <__stack+0x283>
 b98:	73 14       	cp	r7, r3
 b9a:	10 f4       	brcc	.+4      	; 0xba0 <__stack+0x2a1>
 b9c:	37 18       	sub	r3, r7
 b9e:	01 c0       	rjmp	.+2      	; 0xba2 <__stack+0x2a3>
 ba0:	31 2c       	mov	r3, r1
 ba2:	24 ff       	sbrs	r18, 4
 ba4:	12 c0       	rjmp	.+36     	; 0xbca <__stack+0x2cb>
 ba6:	b7 01       	movw	r22, r14
 ba8:	80 e3       	ldi	r24, 0x30	; 48
 baa:	90 e0       	ldi	r25, 0x00	; 0
 bac:	2c 87       	std	Y+12, r18	; 0x0c
 bae:	0e 94 31 06 	call	0xc62	; 0xc62 <fputc>
 bb2:	2c 85       	ldd	r18, Y+12	; 0x0c
 bb4:	22 ff       	sbrs	r18, 2
 bb6:	17 c0       	rjmp	.+46     	; 0xbe6 <__stack+0x2e7>
 bb8:	21 ff       	sbrs	r18, 1
 bba:	03 c0       	rjmp	.+6      	; 0xbc2 <__stack+0x2c3>
 bbc:	88 e5       	ldi	r24, 0x58	; 88
 bbe:	90 e0       	ldi	r25, 0x00	; 0
 bc0:	02 c0       	rjmp	.+4      	; 0xbc6 <__stack+0x2c7>
 bc2:	88 e7       	ldi	r24, 0x78	; 120
 bc4:	90 e0       	ldi	r25, 0x00	; 0
 bc6:	b7 01       	movw	r22, r14
 bc8:	0c c0       	rjmp	.+24     	; 0xbe2 <__stack+0x2e3>
 bca:	82 2f       	mov	r24, r18
 bcc:	86 78       	andi	r24, 0x86	; 134
 bce:	59 f0       	breq	.+22     	; 0xbe6 <__stack+0x2e7>
 bd0:	21 fd       	sbrc	r18, 1
 bd2:	02 c0       	rjmp	.+4      	; 0xbd8 <__stack+0x2d9>
 bd4:	80 e2       	ldi	r24, 0x20	; 32
 bd6:	01 c0       	rjmp	.+2      	; 0xbda <__stack+0x2db>
 bd8:	8b e2       	ldi	r24, 0x2B	; 43
 bda:	27 fd       	sbrc	r18, 7
 bdc:	8d e2       	ldi	r24, 0x2D	; 45
 bde:	b7 01       	movw	r22, r14
 be0:	90 e0       	ldi	r25, 0x00	; 0
 be2:	0e 94 31 06 	call	0xc62	; 0xc62 <fputc>
 be6:	a5 14       	cp	r10, r5
 be8:	38 f4       	brcc	.+14     	; 0xbf8 <__stack+0x2f9>
 bea:	b7 01       	movw	r22, r14
 bec:	80 e3       	ldi	r24, 0x30	; 48
 bee:	90 e0       	ldi	r25, 0x00	; 0
 bf0:	0e 94 31 06 	call	0xc62	; 0xc62 <fputc>
 bf4:	5a 94       	dec	r5
 bf6:	f7 cf       	rjmp	.-18     	; 0xbe6 <__stack+0x2e7>
 bf8:	aa 94       	dec	r10
 bfa:	f4 01       	movw	r30, r8
 bfc:	ea 0d       	add	r30, r10
 bfe:	f1 1d       	adc	r31, r1
 c00:	80 81       	ld	r24, Z
 c02:	b7 01       	movw	r22, r14
 c04:	90 e0       	ldi	r25, 0x00	; 0
 c06:	0e 94 31 06 	call	0xc62	; 0xc62 <fputc>
 c0a:	a1 10       	cpse	r10, r1
 c0c:	f5 cf       	rjmp	.-22     	; 0xbf8 <__stack+0x2f9>
 c0e:	33 20       	and	r3, r3
 c10:	09 f4       	brne	.+2      	; 0xc14 <__stack+0x315>
 c12:	51 ce       	rjmp	.-862    	; 0x8b6 <vfprintf+0x24>
 c14:	b7 01       	movw	r22, r14
 c16:	80 e2       	ldi	r24, 0x20	; 32
 c18:	90 e0       	ldi	r25, 0x00	; 0
 c1a:	0e 94 31 06 	call	0xc62	; 0xc62 <fputc>
 c1e:	3a 94       	dec	r3
 c20:	f6 cf       	rjmp	.-20     	; 0xc0e <__stack+0x30f>
 c22:	f7 01       	movw	r30, r14
 c24:	86 81       	ldd	r24, Z+6	; 0x06
 c26:	97 81       	ldd	r25, Z+7	; 0x07
 c28:	02 c0       	rjmp	.+4      	; 0xc2e <__stack+0x32f>
 c2a:	8f ef       	ldi	r24, 0xFF	; 255
 c2c:	9f ef       	ldi	r25, 0xFF	; 255
 c2e:	2c 96       	adiw	r28, 0x0c	; 12
 c30:	e2 e1       	ldi	r30, 0x12	; 18
 c32:	0c 94 dd 06 	jmp	0xdba	; 0xdba <__epilogue_restores__>

00000c36 <strnlen_P>:
 c36:	fc 01       	movw	r30, r24
 c38:	05 90       	lpm	r0, Z+
 c3a:	61 50       	subi	r22, 0x01	; 1
 c3c:	70 40       	sbci	r23, 0x00	; 0
 c3e:	01 10       	cpse	r0, r1
 c40:	d8 f7       	brcc	.-10     	; 0xc38 <strnlen_P+0x2>
 c42:	80 95       	com	r24
 c44:	90 95       	com	r25
 c46:	8e 0f       	add	r24, r30
 c48:	9f 1f       	adc	r25, r31
 c4a:	08 95       	ret

00000c4c <strnlen>:
 c4c:	fc 01       	movw	r30, r24
 c4e:	61 50       	subi	r22, 0x01	; 1
 c50:	70 40       	sbci	r23, 0x00	; 0
 c52:	01 90       	ld	r0, Z+
 c54:	01 10       	cpse	r0, r1
 c56:	d8 f7       	brcc	.-10     	; 0xc4e <strnlen+0x2>
 c58:	80 95       	com	r24
 c5a:	90 95       	com	r25
 c5c:	8e 0f       	add	r24, r30
 c5e:	9f 1f       	adc	r25, r31
 c60:	08 95       	ret

00000c62 <fputc>:
 c62:	0f 93       	push	r16
 c64:	1f 93       	push	r17
 c66:	cf 93       	push	r28
 c68:	df 93       	push	r29
 c6a:	18 2f       	mov	r17, r24
 c6c:	09 2f       	mov	r16, r25
 c6e:	eb 01       	movw	r28, r22
 c70:	8b 81       	ldd	r24, Y+3	; 0x03
 c72:	81 fd       	sbrc	r24, 1
 c74:	03 c0       	rjmp	.+6      	; 0xc7c <fputc+0x1a>
 c76:	8f ef       	ldi	r24, 0xFF	; 255
 c78:	9f ef       	ldi	r25, 0xFF	; 255
 c7a:	20 c0       	rjmp	.+64     	; 0xcbc <fputc+0x5a>
 c7c:	82 ff       	sbrs	r24, 2
 c7e:	10 c0       	rjmp	.+32     	; 0xca0 <fputc+0x3e>
 c80:	4e 81       	ldd	r20, Y+6	; 0x06
 c82:	5f 81       	ldd	r21, Y+7	; 0x07
 c84:	2c 81       	ldd	r18, Y+4	; 0x04
 c86:	3d 81       	ldd	r19, Y+5	; 0x05
 c88:	42 17       	cp	r20, r18
 c8a:	53 07       	cpc	r21, r19
 c8c:	7c f4       	brge	.+30     	; 0xcac <fputc+0x4a>
 c8e:	e8 81       	ld	r30, Y
 c90:	f9 81       	ldd	r31, Y+1	; 0x01
 c92:	9f 01       	movw	r18, r30
 c94:	2f 5f       	subi	r18, 0xFF	; 255
 c96:	3f 4f       	sbci	r19, 0xFF	; 255
 c98:	39 83       	std	Y+1, r19	; 0x01
 c9a:	28 83       	st	Y, r18
 c9c:	10 83       	st	Z, r17
 c9e:	06 c0       	rjmp	.+12     	; 0xcac <fputc+0x4a>
 ca0:	e8 85       	ldd	r30, Y+8	; 0x08
 ca2:	f9 85       	ldd	r31, Y+9	; 0x09
 ca4:	81 2f       	mov	r24, r17
 ca6:	09 95       	icall
 ca8:	89 2b       	or	r24, r25
 caa:	29 f7       	brne	.-54     	; 0xc76 <fputc+0x14>
 cac:	2e 81       	ldd	r18, Y+6	; 0x06
 cae:	3f 81       	ldd	r19, Y+7	; 0x07
 cb0:	2f 5f       	subi	r18, 0xFF	; 255
 cb2:	3f 4f       	sbci	r19, 0xFF	; 255
 cb4:	3f 83       	std	Y+7, r19	; 0x07
 cb6:	2e 83       	std	Y+6, r18	; 0x06
 cb8:	81 2f       	mov	r24, r17
 cba:	90 2f       	mov	r25, r16
 cbc:	df 91       	pop	r29
 cbe:	cf 91       	pop	r28
 cc0:	1f 91       	pop	r17
 cc2:	0f 91       	pop	r16
 cc4:	08 95       	ret

00000cc6 <__ultoa_invert>:
 cc6:	fa 01       	movw	r30, r20
 cc8:	aa 27       	eor	r26, r26
 cca:	28 30       	cpi	r18, 0x08	; 8
 ccc:	51 f1       	breq	.+84     	; 0xd22 <__ultoa_invert+0x5c>
 cce:	20 31       	cpi	r18, 0x10	; 16
 cd0:	81 f1       	breq	.+96     	; 0xd32 <__ultoa_invert+0x6c>
 cd2:	e8 94       	clt
 cd4:	6f 93       	push	r22
 cd6:	6e 7f       	andi	r22, 0xFE	; 254
 cd8:	6e 5f       	subi	r22, 0xFE	; 254
 cda:	7f 4f       	sbci	r23, 0xFF	; 255
 cdc:	8f 4f       	sbci	r24, 0xFF	; 255
 cde:	9f 4f       	sbci	r25, 0xFF	; 255
 ce0:	af 4f       	sbci	r26, 0xFF	; 255
 ce2:	b1 e0       	ldi	r27, 0x01	; 1
 ce4:	3e d0       	rcall	.+124    	; 0xd62 <__ultoa_invert+0x9c>
 ce6:	b4 e0       	ldi	r27, 0x04	; 4
 ce8:	3c d0       	rcall	.+120    	; 0xd62 <__ultoa_invert+0x9c>
 cea:	67 0f       	add	r22, r23
 cec:	78 1f       	adc	r23, r24
 cee:	89 1f       	adc	r24, r25
 cf0:	9a 1f       	adc	r25, r26
 cf2:	a1 1d       	adc	r26, r1
 cf4:	68 0f       	add	r22, r24
 cf6:	79 1f       	adc	r23, r25
 cf8:	8a 1f       	adc	r24, r26
 cfa:	91 1d       	adc	r25, r1
 cfc:	a1 1d       	adc	r26, r1
 cfe:	6a 0f       	add	r22, r26
 d00:	71 1d       	adc	r23, r1
 d02:	81 1d       	adc	r24, r1
 d04:	91 1d       	adc	r25, r1
 d06:	a1 1d       	adc	r26, r1
 d08:	20 d0       	rcall	.+64     	; 0xd4a <__ultoa_invert+0x84>
 d0a:	09 f4       	brne	.+2      	; 0xd0e <__ultoa_invert+0x48>
 d0c:	68 94       	set
 d0e:	3f 91       	pop	r19
 d10:	2a e0       	ldi	r18, 0x0A	; 10
 d12:	26 9f       	mul	r18, r22
 d14:	11 24       	eor	r1, r1
 d16:	30 19       	sub	r19, r0
 d18:	30 5d       	subi	r19, 0xD0	; 208
 d1a:	31 93       	st	Z+, r19
 d1c:	de f6       	brtc	.-74     	; 0xcd4 <__ultoa_invert+0xe>
 d1e:	cf 01       	movw	r24, r30
 d20:	08 95       	ret
 d22:	46 2f       	mov	r20, r22
 d24:	47 70       	andi	r20, 0x07	; 7
 d26:	40 5d       	subi	r20, 0xD0	; 208
 d28:	41 93       	st	Z+, r20
 d2a:	b3 e0       	ldi	r27, 0x03	; 3
 d2c:	0f d0       	rcall	.+30     	; 0xd4c <__ultoa_invert+0x86>
 d2e:	c9 f7       	brne	.-14     	; 0xd22 <__ultoa_invert+0x5c>
 d30:	f6 cf       	rjmp	.-20     	; 0xd1e <__ultoa_invert+0x58>
 d32:	46 2f       	mov	r20, r22
 d34:	4f 70       	andi	r20, 0x0F	; 15
 d36:	40 5d       	subi	r20, 0xD0	; 208
 d38:	4a 33       	cpi	r20, 0x3A	; 58
 d3a:	18 f0       	brcs	.+6      	; 0xd42 <__ultoa_invert+0x7c>
 d3c:	49 5d       	subi	r20, 0xD9	; 217
 d3e:	31 fd       	sbrc	r19, 1
 d40:	40 52       	subi	r20, 0x20	; 32
 d42:	41 93       	st	Z+, r20
 d44:	02 d0       	rcall	.+4      	; 0xd4a <__ultoa_invert+0x84>
 d46:	a9 f7       	brne	.-22     	; 0xd32 <__ultoa_invert+0x6c>
 d48:	ea cf       	rjmp	.-44     	; 0xd1e <__ultoa_invert+0x58>
 d4a:	b4 e0       	ldi	r27, 0x04	; 4
 d4c:	a6 95       	lsr	r26
 d4e:	97 95       	ror	r25
 d50:	87 95       	ror	r24
 d52:	77 95       	ror	r23
 d54:	67 95       	ror	r22
 d56:	ba 95       	dec	r27
 d58:	c9 f7       	brne	.-14     	; 0xd4c <__ultoa_invert+0x86>
 d5a:	00 97       	sbiw	r24, 0x00	; 0
 d5c:	61 05       	cpc	r22, r1
 d5e:	71 05       	cpc	r23, r1
 d60:	08 95       	ret
 d62:	9b 01       	movw	r18, r22
 d64:	ac 01       	movw	r20, r24
 d66:	0a 2e       	mov	r0, r26
 d68:	06 94       	lsr	r0
 d6a:	57 95       	ror	r21
 d6c:	47 95       	ror	r20
 d6e:	37 95       	ror	r19
 d70:	27 95       	ror	r18
 d72:	ba 95       	dec	r27
 d74:	c9 f7       	brne	.-14     	; 0xd68 <__ultoa_invert+0xa2>
 d76:	62 0f       	add	r22, r18
 d78:	73 1f       	adc	r23, r19
 d7a:	84 1f       	adc	r24, r20
 d7c:	95 1f       	adc	r25, r21
 d7e:	a0 1d       	adc	r26, r0
 d80:	08 95       	ret

00000d82 <__prologue_saves__>:
 d82:	2f 92       	push	r2
 d84:	3f 92       	push	r3
 d86:	4f 92       	push	r4
 d88:	5f 92       	push	r5
 d8a:	6f 92       	push	r6
 d8c:	7f 92       	push	r7
 d8e:	8f 92       	push	r8
 d90:	9f 92       	push	r9
 d92:	af 92       	push	r10
 d94:	bf 92       	push	r11
 d96:	cf 92       	push	r12
 d98:	df 92       	push	r13
 d9a:	ef 92       	push	r14
 d9c:	ff 92       	push	r15
 d9e:	0f 93       	push	r16
 da0:	1f 93       	push	r17
 da2:	cf 93       	push	r28
 da4:	df 93       	push	r29
 da6:	cd b7       	in	r28, 0x3d	; 61
 da8:	de b7       	in	r29, 0x3e	; 62
 daa:	ca 1b       	sub	r28, r26
 dac:	db 0b       	sbc	r29, r27
 dae:	0f b6       	in	r0, 0x3f	; 63
 db0:	f8 94       	cli
 db2:	de bf       	out	0x3e, r29	; 62
 db4:	0f be       	out	0x3f, r0	; 63
 db6:	cd bf       	out	0x3d, r28	; 61
 db8:	09 94       	ijmp

00000dba <__epilogue_restores__>:
 dba:	2a 88       	ldd	r2, Y+18	; 0x12
 dbc:	39 88       	ldd	r3, Y+17	; 0x11
 dbe:	48 88       	ldd	r4, Y+16	; 0x10
 dc0:	5f 84       	ldd	r5, Y+15	; 0x0f
 dc2:	6e 84       	ldd	r6, Y+14	; 0x0e
 dc4:	7d 84       	ldd	r7, Y+13	; 0x0d
 dc6:	8c 84       	ldd	r8, Y+12	; 0x0c
 dc8:	9b 84       	ldd	r9, Y+11	; 0x0b
 dca:	aa 84       	ldd	r10, Y+10	; 0x0a
 dcc:	b9 84       	ldd	r11, Y+9	; 0x09
 dce:	c8 84       	ldd	r12, Y+8	; 0x08
 dd0:	df 80       	ldd	r13, Y+7	; 0x07
 dd2:	ee 80       	ldd	r14, Y+6	; 0x06
 dd4:	fd 80       	ldd	r15, Y+5	; 0x05
 dd6:	0c 81       	ldd	r16, Y+4	; 0x04
 dd8:	1b 81       	ldd	r17, Y+3	; 0x03
 dda:	aa 81       	ldd	r26, Y+2	; 0x02
 ddc:	b9 81       	ldd	r27, Y+1	; 0x01
 dde:	ce 0f       	add	r28, r30
 de0:	d1 1d       	adc	r29, r1
 de2:	0f b6       	in	r0, 0x3f	; 63
 de4:	f8 94       	cli
 de6:	de bf       	out	0x3e, r29	; 62
 de8:	0f be       	out	0x3f, r0	; 63
 dea:	cd bf       	out	0x3d, r28	; 61
 dec:	ed 01       	movw	r28, r26
 dee:	08 95       	ret

00000df0 <_exit>:
 df0:	f8 94       	cli

00000df2 <__stop_program>:
 df2:	ff cf       	rjmp	.-2      	; 0xdf2 <__stop_program>
